EXPORTS
	?tr@QMediaRecorderControl@@SA?AVQString@@PBD0H@Z @ 1 NONAME ; class QString QMediaRecorderControl::tr(char const *, char const *, int)
	?tr@QAbstractVideoSurface@@SA?AVQString@@PBD0@Z @ 2 NONAME ; class QString QAbstractVideoSurface::tr(char const *, char const *)
	?stop@QRadioTuner@@QAEXXZ @ 3 NONAME ; void QRadioTuner::stop(void)
	?setSampleRate@QAudioFormat@@QAEXH@Z @ 4 NONAME ; void QAudioFormat::setSampleRate(int)
	??1QMediaServiceProvider@@UAE@XZ @ 5 NONAME ; QMediaServiceProvider::~QMediaServiceProvider(void)
	??0QMediaTimeInterval@@QAE@XZ @ 6 NONAME ; QMediaTimeInterval::QMediaTimeInterval(void)
	?metaObject@QAbstractAudioDeviceInfo@@UBEPBUQMetaObject@@XZ @ 7 NONAME ; struct QMetaObject const * QAbstractAudioDeviceInfo::metaObject(void) const
	?tr@QAbstractAudioOutput@@SA?AVQString@@PBD0@Z @ 8 NONAME ; class QString QAbstractAudioOutput::tr(char const *, char const *)
	?qt_metacall@QAudioCaptureSource@@UAEHW4Call@QMetaObject@@HPAPAX@Z @ 9 NONAME ; int QAudioCaptureSource::qt_metacall(enum QMetaObject::Call, int, void * *)
	?mediaRemoved@QMediaPlaylist@@IAEXHH@Z @ 10 NONAME ; void QMediaPlaylist::mediaRemoved(int, int)
	?isSearching@QRadioTuner@@QBE_NXZ @ 11 NONAME ; bool QRadioTuner::isSearching(void) const
	??0QMediaResource@@QAE@ABVQNetworkRequest@@ABVQString@@@Z @ 12 NONAME ; QMediaResource::QMediaResource(class QNetworkRequest const &, class QString const &)
	?devicesChanged@QVideoDeviceControl@@IAEXXZ @ 13 NONAME ; void QVideoDeviceControl::devicesChanged(void)
	?supportedVideoCodecs@QMediaRecorder@@QBE?AVQStringList@@XZ @ 14 NONAME ; class QStringList QMediaRecorder::supportedVideoCodecs(void) const
	?searchForward@QRadioTuner@@QAEXXZ @ 15 NONAME ; void QRadioTuner::searchForward(void)
	?saturation@QVideoWidget@@QBEHXZ @ 16 NONAME ; int QVideoWidget::saturation(void) const
	?mediaInserted@QMediaPlaylistProvider@@IAEXHH@Z @ 17 NONAME ; void QMediaPlaylistProvider::mediaInserted(int, int)
	?insertMedia@QMediaPlaylist@@QAE_NHABVQMediaContent@@@Z @ 18 NONAME ; bool QMediaPlaylist::insertMedia(int, class QMediaContent const &)
	?availableMetaData@QMediaRecorder@@QBE?AV?$QList@W4MetaData@QtMultimediaKit@@@@XZ @ 19 NONAME ; class QList<enum QtMultimediaKit::MetaData> QMediaRecorder::availableMetaData(void) const
	?staticMetaObject@QGraphicsVideoItem@@2UQMetaObject@@B @ 20 NONAME ; struct QMetaObject const QGraphicsVideoItem::staticMetaObject
	?qt_metacall@QAbstractAudioDeviceInfo@@UAEHW4Call@QMetaObject@@HPAPAX@Z @ 21 NONAME ; int QAbstractAudioDeviceInfo::qt_metacall(enum QMetaObject::Call, int, void * *)
	??_EQMediaServiceSupportedFormatsInterface@@UAE@I@Z @ 22 NONAME ; QMediaServiceSupportedFormatsInterface::~QMediaServiceSupportedFormatsInterface(unsigned int)
	??0QAbstractVideoBuffer@@IAE@AAVQAbstractVideoBufferPrivate@@W4HandleType@0@@Z @ 23 NONAME ; QAbstractVideoBuffer::QAbstractVideoBuffer(class QAbstractVideoBufferPrivate &, enum QAbstractVideoBuffer::HandleType)
	?staticMetaObject@QVideoDeviceControl@@2UQMetaObject@@B @ 24 NONAME ; struct QMetaObject const QVideoDeviceControl::staticMetaObject
	?tr@QImageEncoderControl@@SA?AVQString@@PBD0H@Z @ 25 NONAME ; class QString QImageEncoderControl::tr(char const *, char const *, int)
	??1QAbstractVideoBuffer@@UAE@XZ @ 26 NONAME ; QAbstractVideoBuffer::~QAbstractVideoBuffer(void)
	?stop@QAudioOutput@@QAEXXZ @ 27 NONAME ; void QAudioOutput::stop(void)
	?stateChanged@QMediaRecorder@@IAEXW4State@1@@Z @ 28 NONAME ; void QMediaRecorder::stateChanged(enum QMediaRecorder::State)
	?isEmpty@QMediaPlaylist@@QBE_NXZ @ 29 NONAME ; bool QMediaPlaylist::isEmpty(void) const
	?insertMedia@QMediaPlaylist@@QAE_NHABV?$QList@VQMediaContent@@@@@Z @ 30 NONAME ; bool QMediaPlaylist::insertMedia(int, class QList<class QMediaContent> const &)
	?bytesFree@QAudioOutput@@QBEHXZ @ 31 NONAME ; int QAudioOutput::bytesFree(void) const
	??1QMediaTimeRange@@QAE@XZ @ 32 NONAME ; QMediaTimeRange::~QMediaTimeRange(void)
	?trUtf8@QAbstractAudioOutput@@SA?AVQString@@PBD0H@Z @ 33 NONAME ; class QString QAbstractAudioOutput::trUtf8(char const *, char const *, int)
	?playlistChanged@QMediaPlaylistSourceControl@@IAEXPAVQMediaPlaylist@@@Z @ 34 NONAME ; void QMediaPlaylistSourceControl::playlistChanged(class QMediaPlaylist *)
	?staticMetaObject@QSoundEffect@@2UQMetaObject@@B @ 35 NONAME ; struct QMetaObject const QSoundEffect::staticMetaObject
	?error@QMediaPlayerControl@@IAEXHABVQString@@@Z @ 36 NONAME ; void QMediaPlayerControl::error(int, class QString const &)
	?d_func@QMediaPlaylist@@ABEPBVQMediaPlaylistPrivate@@XZ @ 37 NONAME ; class QMediaPlaylistPrivate const * QMediaPlaylist::d_func(void) const
	?metaObject@QRadioTuner@@UBEPBUQMetaObject@@XZ @ 38 NONAME ; struct QMetaObject const * QRadioTuner::metaObject(void) const
	?bits@QVideoFrame@@QBEPBEXZ @ 39 NONAME ; unsigned char const * QVideoFrame::bits(void) const
	?staticMetaObject@QVideoWidget@@2UQMetaObject@@B @ 40 NONAME ; struct QMetaObject const QVideoWidget::staticMetaObject
	??_EQMediaControl@@UAE@I@Z @ 41 NONAME ; QMediaControl::~QMediaControl(unsigned int)
	?media@QMediaPlaylist@@QBE?AVQMediaContent@@H@Z @ 42 NONAME ; class QMediaContent QMediaPlaylist::media(int) const
	?mapMode@QVideoFrame@@QBE?AW4MapMode@QAbstractVideoBuffer@@XZ @ 43 NONAME ; enum QAbstractVideoBuffer::MapMode QVideoFrame::mapMode(void) const
	??0QAudioCaptureSource@@QAE@PAVQObject@@PAVQMediaServiceProvider@@@Z @ 44 NONAME ; QAudioCaptureSource::QAudioCaptureSource(class QObject *, class QMediaServiceProvider *)
	??1QMediaControl@@UAE@XZ @ 45 NONAME ; QMediaControl::~QMediaControl(void)
	?staticMetaObject@QMediaObject@@2UQMetaObject@@B @ 46 NONAME ; struct QMetaObject const QMediaObject::staticMetaObject
	?qt_metacast@QMediaPlaylistProvider@@UAEPAXPBD@Z @ 47 NONAME ; void * QMediaPlaylistProvider::qt_metacast(char const *)
	??0QMediaServiceProviderHint@@QAE@ABVQByteArray@@@Z @ 48 NONAME ; QMediaServiceProviderHint::QMediaServiceProviderHint(class QByteArray const &)
	?trUtf8@QAudioOutput@@SA?AVQString@@PBD0@Z @ 49 NONAME ; class QString QAudioOutput::trUtf8(char const *, char const *)
	?qt_metacast@QSoundEffect@@UAEPAXPBD@Z @ 50 NONAME ; void * QSoundEffect::qt_metacast(char const *)
	?searchingChanged@QRadioTunerControl@@IAEX_N@Z @ 51 NONAME ; void QRadioTunerControl::searchingChanged(bool)
	?tr@QMediaObject@@SA?AVQString@@PBD0@Z @ 52 NONAME ; class QString QMediaObject::tr(char const *, char const *)
	?trUtf8@QMediaPlaylistControl@@SA?AVQString@@PBD0H@Z @ 53 NONAME ; class QString QMediaPlaylistControl::trUtf8(char const *, char const *, int)
	?end@QMediaTimeInterval@@QBE_JXZ @ 54 NONAME ; long long QMediaTimeInterval::end(void) const
	??0QImageEncoderControl@@IAE@PAVQObject@@@Z @ 55 NONAME ; QImageEncoderControl::QImageEncoderControl(class QObject *)
	?format@QAudioOutput@@QBE?AVQAudioFormat@@XZ @ 56 NONAME ; class QAudioFormat QAudioOutput::format(void) const
	?d_func@QGraphicsVideoItem@@AAEPAVQGraphicsVideoItemPrivate@@XZ @ 57 NONAME ; class QGraphicsVideoItemPrivate * QGraphicsVideoItem::d_func(void)
	?d_func@QRadioTuner@@AAEPAVQRadioTunerPrivate@@XZ @ 58 NONAME ; class QRadioTunerPrivate * QRadioTuner::d_func(void)
	?trUtf8@QMediaPlaylistProvider@@SA?AVQString@@PBD0H@Z @ 59 NONAME ; class QString QMediaPlaylistProvider::trUtf8(char const *, char const *, int)
	?staticMetaObject@QMediaPlaylistIOPlugin@@2UQMetaObject@@B @ 60 NONAME ; struct QMetaObject const QMediaPlaylistIOPlugin::staticMetaObject
	?isStereo@QRadioTuner@@QBE_NXZ @ 61 NONAME ; bool QRadioTuner::isStereo(void) const
	?tr@QAudioEndpointSelector@@SA?AVQString@@PBD0H@Z @ 62 NONAME ; class QString QAudioEndpointSelector::tr(char const *, char const *, int)
	?tr@QMediaImageViewer@@SA?AVQString@@PBD0@Z @ 63 NONAME ; class QString QMediaImageViewer::tr(char const *, char const *)
	??_EQMediaServiceProvider@@UAE@I@Z @ 64 NONAME ; QMediaServiceProvider::~QMediaServiceProvider(unsigned int)
	?setStereoMode@QRadioTuner@@QAEXW4StereoMode@1@@Z @ 65 NONAME ; void QRadioTuner::setStereoMode(enum QRadioTuner::StereoMode)
	?qt_metacall@QMediaServiceProvider@@UAEHW4Call@QMetaObject@@HPAPAX@Z @ 66 NONAME ; int QMediaServiceProvider::qt_metacall(enum QMetaObject::Call, int, void * *)
	?trUtf8@QMediaObject@@SA?AVQString@@PBD0H@Z @ 67 NONAME ; class QString QMediaObject::trUtf8(char const *, char const *, int)
	?supportedSampleTypes@QAudioDeviceInfo@@QBE?AV?$QList@W4SampleType@QAudioFormat@@@@XZ @ 68 NONAME ; class QList<enum QAudioFormat::SampleType> QAudioDeviceInfo::supportedSampleTypes(void) const
	?metaObject@QVideoEncoderControl@@UBEPBUQMetaObject@@XZ @ 69 NONAME ; struct QMetaObject const * QVideoEncoderControl::metaObject(void) const
	??_EQVideoEncoderControl@@UAE@I@Z @ 70 NONAME ; QVideoEncoderControl::~QVideoEncoderControl(unsigned int)
	?getStaticMetaObject@QGraphicsVideoItem@@SAABUQMetaObject@@XZ @ 71 NONAME ; struct QMetaObject const & QGraphicsVideoItem::getStaticMetaObject(void)
	?isWritable@QVideoFrame@@QBE_NXZ @ 72 NONAME ; bool QVideoFrame::isWritable(void) const
	??0QAudioOutput@@QAE@ABVQAudioFormat@@PAVQObject@@@Z @ 73 NONAME ; QAudioOutput::QAudioOutput(class QAudioFormat const &, class QObject *)
	??1QAudioEncoderSettings@@QAE@XZ @ 74 NONAME ; QAudioEncoderSettings::~QAudioEncoderSettings(void)
	?metaDataChanged@QMediaRecorder@@IAEXXZ @ 75 NONAME ; void QMediaRecorder::metaDataChanged(void)
	??1QMediaBindableInterface@@UAE@XZ @ 76 NONAME ; QMediaBindableInterface::~QMediaBindableInterface(void)
	??1QRadioTunerControl@@UAE@XZ @ 77 NONAME ; QRadioTunerControl::~QRadioTunerControl(void)
	?staticMetaObject@QAbstractAudioInput@@2UQMetaObject@@B @ 78 NONAME ; struct QMetaObject const QAbstractAudioInput::staticMetaObject
	?tr@QAbstractAudioInput@@SA?AVQString@@PBD0@Z @ 79 NONAME ; class QString QAbstractAudioInput::tr(char const *, char const *)
	??1QMediaContainerControl@@UAE@XZ @ 80 NONAME ; QMediaContainerControl::~QMediaContainerControl(void)
	?channelCount@QAudioFormat@@QBEHXZ @ 81 NONAME ; int QAudioFormat::channelCount(void) const
	?previousIndex@QMediaPlaylistNavigator@@QBEHH@Z @ 82 NONAME ; int QMediaPlaylistNavigator::previousIndex(int) const
	?trUtf8@QGraphicsVideoItem@@SA?AVQString@@PBD0H@Z @ 83 NONAME ; class QString QGraphicsVideoItem::trUtf8(char const *, char const *, int)
	?positionChanged@QMediaPlayerControl@@IAEX_J@Z @ 84 NONAME ; void QMediaPlayerControl::positionChanged(long long)
	?metaObject@QMediaServiceProviderPlugin@@UBEPBUQMetaObject@@XZ @ 85 NONAME ; struct QMetaObject const * QMediaServiceProviderPlugin::metaObject(void) const
	?currentMediaChanged@QMediaPlaylist@@IAEXABVQMediaContent@@@Z @ 86 NONAME ; void QMediaPlaylist::currentMediaChanged(class QMediaContent const &)
	?searchBackward@QRadioTuner@@QAEXXZ @ 87 NONAME ; void QRadioTuner::searchBackward(void)
	?getStaticMetaObject@QMediaPlaylist@@SAABUQMetaObject@@XZ @ 88 NONAME ; struct QMetaObject const & QMediaPlaylist::getStaticMetaObject(void)
	?setPixelAspectRatio@QVideoSurfaceFormat@@QAEXABVQSize@@@Z @ 89 NONAME ; void QVideoSurfaceFormat::setPixelAspectRatio(class QSize const &)
	?qt_metacast@QMediaPlaylistControl@@UAEPAXPBD@Z @ 90 NONAME ; void * QMediaPlaylistControl::qt_metacast(char const *)
	?audioSettings@QMediaRecorder@@QBE?AVQAudioEncoderSettings@@XZ @ 91 NONAME ; class QAudioEncoderSettings QMediaRecorder::audioSettings(void) const
	?yCbCrColorSpace@QVideoSurfaceFormat@@QBE?AW4YCbCrColorSpace@1@XZ @ 92 NONAME ; enum QVideoSurfaceFormat::YCbCrColorSpace QVideoSurfaceFormat::yCbCrColorSpace(void) const
	?qt_metacast@QVideoEncoderControl@@UAEPAXPBD@Z @ 93 NONAME ; void * QVideoEncoderControl::qt_metacast(char const *)
	?staticMetaObject@QAbstractAudioOutput@@2UQMetaObject@@B @ 94 NONAME ; struct QMetaObject const QAbstractAudioOutput::staticMetaObject
	??_EQAbstractAudioOutput@@UAE@I@Z @ 95 NONAME ; QAbstractAudioOutput::~QAbstractAudioOutput(unsigned int)
	?addMedia@QLocalMediaPlaylistProvider@@UAE_NABV?$QList@VQMediaContent@@@@@Z @ 96 NONAME ; bool QLocalMediaPlaylistProvider::addMedia(class QList<class QMediaContent> const &)
	?staticMetaObject@QLocalMediaPlaylistProvider@@2UQMetaObject@@B @ 97 NONAME ; struct QMetaObject const QLocalMediaPlaylistProvider::staticMetaObject
	?supportedSampleSizes@QAudioDeviceInfo@@QBE?AV?$QList@H@@XZ @ 98 NONAME ; class QList<int> QAudioDeviceInfo::supportedSampleSizes(void) const
	?addMedia@QMediaPlaylist@@QAE_NABV?$QList@VQMediaContent@@@@@Z @ 99 NONAME ; bool QMediaPlaylist::addMedia(class QList<class QMediaContent> const &)
	?hueChanged@QVideoWidget@@IAEXH@Z @ 100 NONAME ; void QVideoWidget::hueChanged(int)
	??4QVideoEncoderSettings@@QAEAAV0@ABV0@@Z @ 101 NONAME ; class QVideoEncoderSettings & QVideoEncoderSettings::operator=(class QVideoEncoderSettings const &)
	?qt_metacast@QVideoWidget@@UAEPAXPBD@Z @ 102 NONAME ; void * QVideoWidget::qt_metacast(char const *)
	?activeAudioInput@QAudioCaptureSource@@QBE?AVQString@@XZ @ 103 NONAME ; class QString QAudioCaptureSource::activeAudioInput(void) const
	??0QVideoSurfaceFormat@@QAE@XZ @ 104 NONAME ; QVideoSurfaceFormat::QVideoSurfaceFormat(void)
	?supportedChannelCounts@QAudioDeviceInfo@@QBE?AV?$QList@H@@XZ @ 105 NONAME ; class QList<int> QAudioDeviceInfo::supportedChannelCounts(void) const
	?getStaticMetaObject@QMediaPlaylistControl@@SAABUQMetaObject@@XZ @ 106 NONAME ; struct QMetaObject const & QMediaPlaylistControl::getStaticMetaObject(void)
	?setMuted@QMediaRecorder@@QAEX_N@Z @ 107 NONAME ; void QMediaRecorder::setMuted(bool)
	?qt_metacall@QMetaDataReaderControl@@UAEHW4Call@QMetaObject@@HPAPAX@Z @ 108 NONAME ; int QMetaDataReaderControl::qt_metacall(enum QMetaObject::Call, int, void * *)
	??H@YA?AVQMediaTimeRange@@ABV0@0@Z @ 109 NONAME ; class QMediaTimeRange operator+(class QMediaTimeRange const &, class QMediaTimeRange const &)
	?record@QMediaRecorder@@QAEXXZ @ 110 NONAME ; void QMediaRecorder::record(void)
	?metaObject@QMediaService@@UBEPBUQMetaObject@@XZ @ 111 NONAME ; struct QMetaObject const * QMediaService::metaObject(void) const
	?isMuted@QRadioTuner@@QBE_NXZ @ 112 NONAME ; bool QRadioTuner::isMuted(void) const
	?availabilityChanged@QMediaObject@@IAEX_N@Z @ 113 NONAME ; void QMediaObject::availabilityChanged(bool)
	?trUtf8@QVideoEncoderControl@@SA?AVQString@@PBD0@Z @ 114 NONAME ; class QString QVideoEncoderControl::trUtf8(char const *, char const *)
	?trUtf8@QMetaDataReaderControl@@SA?AVQString@@PBD0@Z @ 115 NONAME ; class QString QMetaDataReaderControl::trUtf8(char const *, char const *)
	?setLanguage@QMediaResource@@QAEXABVQString@@@Z @ 116 NONAME ; void QMediaResource::setLanguage(class QString const &)
	??0QMediaResource@@QAE@ABVQUrl@@ABVQString@@@Z @ 117 NONAME ; QMediaResource::QMediaResource(class QUrl const &, class QString const &)
	?volume@QSoundEffect@@QBEMXZ @ 118 NONAME ; float QSoundEffect::volume(void) const
	?mutedChanged@QRadioTuner@@IAEX_N@Z @ 119 NONAME ; void QRadioTuner::mutedChanged(bool)
	?currentIndex@QMediaPlaylist@@QBEHXZ @ 120 NONAME ; int QMediaPlaylist::currentIndex(void) const
	?setNotifyInterval@QAudioInput@@QAEXH@Z @ 121 NONAME ; void QAudioInput::setNotifyInterval(int)
	?aspectRatioMode@QGraphicsVideoItem@@QBE?AW4AspectRatioMode@Qt@@XZ @ 122 NONAME ; enum Qt::AspectRatioMode QGraphicsVideoItem::aspectRatioMode(void) const
	??0QMediaTimeRange@@QAE@ABVQMediaTimeInterval@@@Z @ 123 NONAME ; QMediaTimeRange::QMediaTimeRange(class QMediaTimeInterval const &)
	?qt_metacall@QMediaPlaylistProvider@@UAEHW4Call@QMetaObject@@HPAPAX@Z @ 124 NONAME ; int QMediaPlaylistProvider::qt_metacall(enum QMetaObject::Call, int, void * *)
	??_EQVideoWidgetControl@@UAE@I@Z @ 125 NONAME ; QVideoWidgetControl::~QVideoWidgetControl(unsigned int)
	?trUtf8@QVideoDeviceControl@@SA?AVQString@@PBD0H@Z @ 126 NONAME ; class QString QVideoDeviceControl::trUtf8(char const *, char const *, int)
	?seekableChanged@QMediaPlayer@@IAEX_N@Z @ 127 NONAME ; void QMediaPlayer::seekableChanged(bool)
	?unbind@QMediaPlayer@@UAEXPAVQObject@@@Z @ 128 NONAME ; void QMediaPlayer::unbind(class QObject *)
	?tr@QMediaPlaylistControl@@SA?AVQString@@PBD0@Z @ 129 NONAME ; class QString QMediaPlaylistControl::tr(char const *, char const *)
	?setVolume@QMediaPlayer@@QAEXH@Z @ 130 NONAME ; void QMediaPlayer::setVolume(int)
	?setPlaylist@QMediaPlaylistNavigator@@QAEXPAVQMediaPlaylistProvider@@@Z @ 131 NONAME ; void QMediaPlaylistNavigator::setPlaylist(class QMediaPlaylistProvider *)
	?setMuted@QSoundEffect@@QAEX_N@Z @ 132 NONAME ; void QSoundEffect::setMuted(bool)
	?trUtf8@QAudioEncoderControl@@SA?AVQString@@PBD0@Z @ 133 NONAME ; class QString QAudioEncoderControl::trUtf8(char const *, char const *)
	?sampleRate@QAudioFormat@@QBEHXZ @ 134 NONAME ; int QAudioFormat::sampleRate(void) const
	?staticMetaObject@QAudioOutput@@2UQMetaObject@@B @ 135 NONAME ; struct QMetaObject const QAudioOutput::staticMetaObject
	?setQuality@QAudioEncoderSettings@@QAEXW4EncodingQuality@QtMultimediaKit@@@Z @ 136 NONAME ; void QAudioEncoderSettings::setQuality(enum QtMultimediaKit::EncodingQuality)
	?getStaticMetaObject@QMediaObject@@SAABUQMetaObject@@XZ @ 137 NONAME ; struct QMetaObject const & QMediaObject::getStaticMetaObject(void)
	??1QMediaServiceProviderHint@@QAE@XZ @ 138 NONAME ; QMediaServiceProviderHint::~QMediaServiceProviderHint(void)
	?mediaCount@QMediaPlaylist@@QBEHXZ @ 139 NONAME ; int QMediaPlaylist::mediaCount(void) const
	?load@QMediaPlaylist@@QAEXABVQUrl@@PBD@Z @ 140 NONAME ; void QMediaPlaylist::load(class QUrl const &, char const *)
	?earliestTime@QMediaTimeRange@@QBE_JXZ @ 141 NONAME ; long long QMediaTimeRange::earliestTime(void) const
	?frameSize@QVideoSurfaceFormat@@QBE?AVQSize@@XZ @ 142 NONAME ; class QSize QVideoSurfaceFormat::frameSize(void) const
	?tr@QMediaContainerControl@@SA?AVQString@@PBD0H@Z @ 143 NONAME ; class QString QMediaContainerControl::tr(char const *, char const *, int)
	?bits@QVideoFrame@@QAEPAEXZ @ 144 NONAME ; unsigned char * QVideoFrame::bits(void)
	?setSource@QSoundEffect@@QAEXABVQUrl@@@Z @ 145 NONAME ; void QSoundEffect::setSource(class QUrl const &)
	?setExtendedMetaData@QMediaRecorder@@QAEXABVQString@@ABVQVariant@@@Z @ 146 NONAME ; void QMediaRecorder::setExtendedMetaData(class QString const &, class QVariant const &)
	??0QMediaPlaylistSourceControl@@IAE@PAVQObject@@@Z @ 147 NONAME ; QMediaPlaylistSourceControl::QMediaPlaylistSourceControl(class QObject *)
	?qt_metacast@QMetaDataReaderControl@@UAEPAXPBD@Z @ 148 NONAME ; void * QMetaDataReaderControl::qt_metacast(char const *)
	?tr@QVideoWidget@@SA?AVQString@@PBD0@Z @ 149 NONAME ; class QString QVideoWidget::tr(char const *, char const *)
	?getStaticMetaObject@QMediaPlaylistNavigator@@SAABUQMetaObject@@XZ @ 150 NONAME ; struct QMetaObject const & QMediaPlaylistNavigator::getStaticMetaObject(void)
	??0QMediaControl@@IAE@AAVQMediaControlPrivate@@PAVQObject@@@Z @ 151 NONAME ; QMediaControl::QMediaControl(class QMediaControlPrivate &, class QObject *)
	?videoAvailableChanged@QMediaPlayerControl@@IAEX_N@Z @ 152 NONAME ; void QMediaPlayerControl::videoAvailableChanged(bool)
	?tr@QLocalMediaPlaylistProvider@@SA?AVQString@@PBD0@Z @ 153 NONAME ; class QString QLocalMediaPlaylistProvider::tr(char const *, char const *)
	?supportedResolutions@QMediaRecorder@@QBE?AV?$QList@VQSize@@@@ABVQVideoEncoderSettings@@PA_N@Z @ 154 NONAME ; class QList<class QSize> QMediaRecorder::supportedResolutions(class QVideoEncoderSettings const &, bool *) const
	?removeMedia@QLocalMediaPlaylistProvider@@UAE_NH@Z @ 155 NONAME ; bool QLocalMediaPlaylistProvider::removeMedia(int)
	?qt_metacast@QMediaImageViewer@@UAEPAXPBD@Z @ 156 NONAME ; void * QMediaImageViewer::qt_metacast(char const *)
	?contrast@QVideoWidget@@QBEHXZ @ 157 NONAME ; int QVideoWidget::contrast(void) const
	??_EQMetaDataWriterControl@@UAE@I@Z @ 158 NONAME ; QMetaDataWriterControl::~QMetaDataWriterControl(unsigned int)
	?previous@QMediaPlaylistNavigator@@QAEXXZ @ 159 NONAME ; void QMediaPlaylistNavigator::previous(void)
	?qt_metacall@QAudioSystemPlugin@@UAEHW4Call@QMetaObject@@HPAPAX@Z @ 160 NONAME ; int QAudioSystemPlugin::qt_metacall(enum QMetaObject::Call, int, void * *)
	?start@QAudioInput@@QAEXPAVQIODevice@@@Z @ 161 NONAME ; void QAudioInput::start(class QIODevice *)
	?isValid@QVideoFrame@@QBE_NXZ @ 162 NONAME ; bool QVideoFrame::isValid(void) const
	?fullScreenChanged@QVideoWidget@@IAEX_N@Z @ 163 NONAME ; void QVideoWidget::fullScreenChanged(bool)
	?setSaturation@QVideoWidget@@QAEXH@Z @ 164 NONAME ; void QVideoWidget::setSaturation(int)
	?bandChanged@QRadioTuner@@IAEXW4Band@1@@Z @ 165 NONAME ; void QRadioTuner::bandChanged(enum QRadioTuner::Band)
	?d_func@QMediaPlayer@@ABEPBVQMediaPlayerPrivate@@XZ @ 166 NONAME ; class QMediaPlayerPrivate const * QMediaPlayer::d_func(void) const
	?notify@QAudioInput@@IAEXXZ @ 167 NONAME ; void QAudioInput::notify(void)
	?loadFailed@QMediaPlaylistProvider@@IAEXW4Error@QMediaPlaylist@@ABVQString@@@Z @ 168 NONAME ; void QMediaPlaylistProvider::loadFailed(enum QMediaPlaylist::Error, class QString const &)
	??_EQMediaPlayer@@UAE@I@Z @ 169 NONAME ; QMediaPlayer::~QMediaPlayer(unsigned int)
	?tr@QSoundEffect@@SA?AVQString@@PBD0@Z @ 170 NONAME ; class QString QSoundEffect::tr(char const *, char const *)
	?mimeType@QMediaResource@@QBE?AVQString@@XZ @ 171 NONAME ; class QString QMediaResource::mimeType(void) const
	??0QAudioEncoderSettings@@QAE@ABV0@@Z @ 172 NONAME ; QAudioEncoderSettings::QAudioEncoderSettings(class QAudioEncoderSettings const &)
	?videoAvailableChanged@QMediaPlayer@@IAEX_N@Z @ 173 NONAME ; void QMediaPlayer::videoAvailableChanged(bool)
	?stateChanged@QMediaRecorderControl@@IAEXW4State@QMediaRecorder@@@Z @ 174 NONAME ; void QMediaRecorderControl::stateChanged(enum QMediaRecorder::State)
	?pixelFormat@QVideoSurfaceFormat@@QBE?AW4PixelFormat@QVideoFrame@@XZ @ 175 NONAME ; enum QVideoFrame::PixelFormat QVideoSurfaceFormat::pixelFormat(void) const
	?map@QMemoryVideoBuffer@@UAEPAEW4MapMode@QAbstractVideoBuffer@@PAH1@Z @ 176 NONAME ; unsigned char * QMemoryVideoBuffer::map(enum QAbstractVideoBuffer::MapMode, int *, int *)
	?sampleRate@QMediaResource@@QBEHXZ @ 177 NONAME ; int QMediaResource::sampleRate(void) const
	??0QRadioTunerControl@@IAE@PAVQObject@@@Z @ 178 NONAME ; QRadioTunerControl::QRadioTunerControl(class QObject *)
	?staticMetaObject@QMediaPlaylist@@2UQMetaObject@@B @ 179 NONAME ; struct QMetaObject const QMediaPlaylist::staticMetaObject
	?state@QAudioInput@@QBE?AW4State@QAudio@@XZ @ 180 NONAME ; enum QAudio::State QAudioInput::state(void) const
	??0QMediaContent@@QAE@ABV?$QList@VQMediaResource@@@@@Z @ 181 NONAME ; QMediaContent::QMediaContent(class QList<class QMediaResource> const &)
	?qt_metacast@QMediaServiceProviderPlugin@@UAEPAXPBD@Z @ 182 NONAME ; void * QMediaServiceProviderPlugin::qt_metacast(char const *)
	??0QVideoSurfaceFormat@@QAE@ABV0@@Z @ 183 NONAME ; QVideoSurfaceFormat::QVideoSurfaceFormat(class QVideoSurfaceFormat const &)
	?deviceDescription@QMediaServiceProvider@@UAE?AVQString@@ABVQByteArray@@0@Z @ 184 NONAME ; class QString QMediaServiceProvider::deviceDescription(class QByteArray const &, class QByteArray const &)
	??9@YA_NABVQMediaTimeInterval@@0@Z @ 185 NONAME ; bool operator!=(class QMediaTimeInterval const &, class QMediaTimeInterval const &)
	??_EQVideoRendererControl@@UAE@I@Z @ 186 NONAME ; QVideoRendererControl::~QVideoRendererControl(unsigned int)
	?setAudioBitRate@QMediaResource@@QAEXH@Z @ 187 NONAME ; void QMediaResource::setAudioBitRate(int)
	?setFullScreen@QVideoWidget@@QAEX_N@Z @ 188 NONAME ; void QVideoWidget::setFullScreen(bool)
	?metaObject@QGraphicsVideoItem@@UBEPBUQMetaObject@@XZ @ 189 NONAME ; struct QMetaObject const * QGraphicsVideoItem::metaObject(void) const
	??0QVideoWidget@@QAE@PAVQWidget@@@Z @ 190 NONAME ; QVideoWidget::QVideoWidget(class QWidget *)
	?metaObject@QAbstractAudioOutput@@UBEPBUQMetaObject@@XZ @ 191 NONAME ; struct QMetaObject const * QAbstractAudioOutput::metaObject(void) const
	??_EQMediaPlayerControl@@UAE@I@Z @ 192 NONAME ; QMediaPlayerControl::~QMediaPlayerControl(unsigned int)
	?setLoops@QSoundEffect@@QAEXH@Z @ 193 NONAME ABSENT ; void QSoundEffect::setLoops(int)
	?viewport@QVideoSurfaceFormat@@QBE?AVQRect@@XZ @ 194 NONAME ; class QRect QVideoSurfaceFormat::viewport(void) const
	?d_func@QMediaService@@AAEPAVQMediaServicePrivate@@XZ @ 195 NONAME ; class QMediaServicePrivate * QMediaService::d_func(void)
	?resume@QAudioInput@@QAEXXZ @ 196 NONAME ; void QAudioInput::resume(void)
	?audioCodecDescription@QMediaRecorder@@QBE?AVQString@@ABV2@@Z @ 197 NONAME ; class QString QMediaRecorder::audioCodecDescription(class QString const &) const
	?setAspectRatioMode@QGraphicsVideoItem@@QAEXW4AspectRatioMode@Qt@@@Z @ 198 NONAME ; void QGraphicsVideoItem::setAspectRatioMode(enum Qt::AspectRatioMode)
	?encodingMode@QAudioEncoderSettings@@QBE?AW4EncodingMode@QtMultimediaKit@@XZ @ 199 NONAME ; enum QtMultimediaKit::EncodingMode QAudioEncoderSettings::encodingMode(void) const
	?isVideoAvailable@QMediaPlayer@@QBE_NXZ @ 200 NONAME ; bool QMediaPlayer::isVideoAvailable(void) const
	?playbackMode@QMediaPlaylist@@QBE?AW4PlaybackMode@1@XZ @ 201 NONAME ; enum QMediaPlaylist::PlaybackMode QMediaPlaylist::playbackMode(void) const
	?metaDataChanged@QMediaObject@@IAEXXZ @ 202 NONAME ; void QMediaObject::metaDataChanged(void)
	??0QVideoSurfaceFormat@@QAE@ABVQSize@@W4PixelFormat@QVideoFrame@@W4HandleType@QAbstractVideoBuffer@@@Z @ 203 NONAME ; QVideoSurfaceFormat::QVideoSurfaceFormat(class QSize const &, enum QVideoFrame::PixelFormat, enum QAbstractVideoBuffer::HandleType)
	?trUtf8@QAudioCaptureSource@@SA?AVQString@@PBD0@Z @ 204 NONAME ; class QString QAudioCaptureSource::trUtf8(char const *, char const *)
	?frameHeight@QVideoSurfaceFormat@@QBEHXZ @ 205 NONAME ; int QVideoSurfaceFormat::frameHeight(void) const
	?unmap@QImageVideoBuffer@@UAEXXZ @ 206 NONAME ; void QImageVideoBuffer::unmap(void)
	?translated@QMediaTimeInterval@@QBE?AV1@_J@Z @ 207 NONAME ; class QMediaTimeInterval QMediaTimeInterval::translated(long long) const
	?trUtf8@QGraphicsVideoItem@@SA?AVQString@@PBD0@Z @ 208 NONAME ; class QString QGraphicsVideoItem::trUtf8(char const *, char const *)
	??1QAbstractAudioInput@@UAE@XZ @ 209 NONAME ; QAbstractAudioInput::~QAbstractAudioInput(void)
	?supportedAudioSampleRates@QMediaRecorder@@QBE?AV?$QList@H@@ABVQAudioEncoderSettings@@PA_N@Z @ 210 NONAME ; class QList<int> QMediaRecorder::supportedAudioSampleRates(class QAudioEncoderSettings const &, bool *) const
	?save@QMediaPlaylist@@QAE_NPAVQIODevice@@PBD@Z @ 211 NONAME ; bool QMediaPlaylist::save(class QIODevice *, char const *)
	?setFrameSize@QVideoSurfaceFormat@@QAEXABVQSize@@@Z @ 212 NONAME ; void QVideoSurfaceFormat::setFrameSize(class QSize const &)
	?setPlaylist@QMediaPlayer@@QAEXPAVQMediaPlaylist@@@Z @ 213 NONAME ; void QMediaPlayer::setPlaylist(class QMediaPlaylist *)
	?setMediaObject@QMediaRecorder@@MAE_NPAVQMediaObject@@@Z @ 214 NONAME ; bool QMediaRecorder::setMediaObject(class QMediaObject *)
	?metaObject@QMetaDataReaderControl@@UBEPBUQMetaObject@@XZ @ 215 NONAME ; struct QMetaObject const * QMetaDataReaderControl::metaObject(void) const
	?itemAt@QMediaPlaylistNavigator@@QBE?AVQMediaContent@@H@Z @ 216 NONAME ; class QMediaContent QMediaPlaylistNavigator::itemAt(int) const
	?start@QAudioOutput@@QAEPAVQIODevice@@XZ @ 217 NONAME ; class QIODevice * QAudioOutput::start(void)
	?mediaStatus@QMediaPlayer@@QBE?AW4MediaStatus@1@XZ @ 218 NONAME ; enum QMediaPlayer::MediaStatus QMediaPlayer::mediaStatus(void) const
	?bitRate@QVideoEncoderSettings@@QBEHXZ @ 219 NONAME ; int QVideoEncoderSettings::bitRate(void) const
	?d_func@QMediaControl@@ABEPBVQMediaControlPrivate@@XZ @ 220 NONAME ; class QMediaControlPrivate const * QMediaControl::d_func(void) const
	?staticMetaObject@QAbstractAudioDeviceInfo@@2UQMetaObject@@B @ 221 NONAME ; struct QMetaObject const QAbstractAudioDeviceInfo::staticMetaObject
	??1QAudioInput@@UAE@XZ @ 222 NONAME ; QAudioInput::~QAudioInput(void)
	?setEndTime@QVideoFrame@@QAEX_J@Z @ 223 NONAME ; void QVideoFrame::setEndTime(long long)
	?tr@QMediaPlaylistIOPlugin@@SA?AVQString@@PBD0H@Z @ 224 NONAME ; class QString QMediaPlaylistIOPlugin::tr(char const *, char const *, int)
	?extendedMetaData@QMediaObject@@QBE?AVQVariant@@ABVQString@@@Z @ 225 NONAME ; class QVariant QMediaObject::extendedMetaData(class QString const &) const
	?duration@QMediaPlayer@@QBE_JXZ @ 226 NONAME ; long long QMediaPlayer::duration(void) const
	?audioAvailableChanged@QMediaPlayer@@IAEX_N@Z @ 227 NONAME ; void QMediaPlayer::audioAvailableChanged(bool)
	?mutedChanged@QMediaPlayerControl@@IAEX_N@Z @ 228 NONAME ; void QMediaPlayerControl::mutedChanged(bool)
	?getStaticMetaObject@QMediaServiceProviderPlugin@@SAABUQMetaObject@@XZ @ 229 NONAME ; struct QMetaObject const & QMediaServiceProviderPlugin::getStaticMetaObject(void)
	??9QAudioEncoderSettings@@QBE_NABV0@@Z @ 230 NONAME ; bool QAudioEncoderSettings::operator!=(class QAudioEncoderSettings const &) const
	?bufferSize@QAudioOutput@@QBEHXZ @ 231 NONAME ; int QAudioOutput::bufferSize(void) const
	?getStaticMetaObject@QVideoWidget@@SAABUQMetaObject@@XZ @ 232 NONAME ; struct QMetaObject const & QVideoWidget::getStaticMetaObject(void)
	??1QMediaPlaylistSourceControl@@UAE@XZ @ 233 NONAME ; QMediaPlaylistSourceControl::~QMediaPlaylistSourceControl(void)
	?tr@QVideoWindowControl@@SA?AVQString@@PBD0@Z @ 234 NONAME ; class QString QVideoWindowControl::tr(char const *, char const *)
	??1QMediaContent@@QAE@XZ @ 235 NONAME ; QMediaContent::~QMediaContent(void)
	??0QRadioTuner@@QAE@PAVQObject@@PAVQMediaServiceProvider@@@Z @ 236 NONAME ; QRadioTuner::QRadioTuner(class QObject *, class QMediaServiceProvider *)
	?tr@QAbstractVideoSurface@@SA?AVQString@@PBD0H@Z @ 237 NONAME ; class QString QAbstractVideoSurface::tr(char const *, char const *, int)
	?qt_metacall@QVideoWidget@@UAEHW4Call@QMetaObject@@HPAPAX@Z @ 238 NONAME ; int QVideoWidget::qt_metacall(enum QMetaObject::Call, int, void * *)
	?setSampleRate@QAudioEncoderSettings@@QAEXH@Z @ 239 NONAME ; void QAudioEncoderSettings::setSampleRate(int)
	?setFrameRate@QVideoSurfaceFormat@@QAEXM@Z @ 240 NONAME ; void QVideoSurfaceFormat::setFrameRate(float)
	?qt_metacall@QMediaServiceProviderPlugin@@UAEHW4Call@QMetaObject@@HPAPAX@Z @ 241 NONAME ; int QMediaServiceProviderPlugin::qt_metacall(enum QMetaObject::Call, int, void * *)
	?tr@QVideoRendererControl@@SA?AVQString@@PBD0H@Z @ 242 NONAME ; class QString QVideoRendererControl::tr(char const *, char const *, int)
	?type@QMediaServiceProviderHint@@QBE?AW4Type@1@XZ @ 243 NONAME ; enum QMediaServiceProviderHint::Type QMediaServiceProviderHint::type(void) const
	?staticMetaObject@QVideoWidgetControl@@2UQMetaObject@@B @ 244 NONAME ; struct QMetaObject const QVideoWidgetControl::staticMetaObject
	?isNormal@QMediaTimeInterval@@QBE_NXZ @ 245 NONAME ; bool QMediaTimeInterval::isNormal(void) const
	??_EQMediaService@@UAE@I@Z @ 246 NONAME ; QMediaService::~QMediaService(unsigned int)
	?setChannelCount@QAudioEncoderSettings@@QAEXH@Z @ 247 NONAME ; void QAudioEncoderSettings::setChannelCount(int)
	?qt_metacall@QRadioTunerControl@@UAEHW4Call@QMetaObject@@HPAPAX@Z @ 248 NONAME ; int QRadioTunerControl::qt_metacall(enum QMetaObject::Call, int, void * *)
	?sampleSize@QAudioFormat@@QBEHXZ @ 249 NONAME ; int QAudioFormat::sampleSize(void) const
	?height@QVideoFrame@@QBEHXZ @ 250 NONAME ; int QVideoFrame::height(void) const
	?activeAudioInputChanged@QAudioCaptureSource@@IAEXABVQString@@@Z @ 251 NONAME ; void QAudioCaptureSource::activeAudioInputChanged(class QString const &)
	?d_func@QMediaObject@@ABEPBVQMediaObjectPrivate@@XZ @ 252 NONAME ; class QMediaObjectPrivate const * QMediaObject::d_func(void) const
	??0QAudioFormat@@QAE@XZ @ 253 NONAME ; QAudioFormat::QAudioFormat(void)
	?startTime@QVideoFrame@@QBE_JXZ @ 254 NONAME ; long long QVideoFrame::startTime(void) const
	??_EQAudioSystemPlugin@@UAE@I@Z @ 255 NONAME ; QAudioSystemPlugin::~QAudioSystemPlugin(unsigned int)
	?errorString@QMediaPlaylist@@QBE?AVQString@@XZ @ 256 NONAME ; class QString QMediaPlaylist::errorString(void) const
	?trUtf8@QRadioTunerControl@@SA?AVQString@@PBD0H@Z @ 257 NONAME ; class QString QRadioTunerControl::trUtf8(char const *, char const *, int)
	?getStaticMetaObject@QSoundEffect@@SAABUQMetaObject@@XZ @ 258 NONAME ; struct QMetaObject const & QSoundEffect::getStaticMetaObject(void)
	?trUtf8@QAudioSystemPlugin@@SA?AVQString@@PBD0H@Z @ 259 NONAME ; class QString QAudioSystemPlugin::trUtf8(char const *, char const *, int)
	?trUtf8@QMediaPlayerControl@@SA?AVQString@@PBD0@Z @ 260 NONAME ; class QString QMediaPlayerControl::trUtf8(char const *, char const *)
	?bytesPerLine@QVideoFrame@@QBEHXZ @ 261 NONAME ; int QVideoFrame::bytesPerLine(void) const
	??1QMediaPlayer@@UAE@XZ @ 262 NONAME ; QMediaPlayer::~QMediaPlayer(void)
	?isBandSupported@QRadioTuner@@QBE_NW4Band@1@@Z @ 263 NONAME ; bool QRadioTuner::isBandSupported(enum QRadioTuner::Band) const
	?trUtf8@QMediaPlayer@@SA?AVQString@@PBD0H@Z @ 264 NONAME ; class QString QMediaPlayer::trUtf8(char const *, char const *, int)
	?supportedAudioCodecs@QMediaRecorder@@QBE?AVQStringList@@XZ @ 265 NONAME ; class QStringList QMediaRecorder::supportedAudioCodecs(void) const
	??0QMediaContainerControl@@IAE@PAVQObject@@@Z @ 266 NONAME ; QMediaContainerControl::QMediaContainerControl(class QObject *)
	??0QMediaContent@@QAE@ABVQUrl@@@Z @ 267 NONAME ; QMediaContent::QMediaContent(class QUrl const &)
	?mediaStatusChanged@QMediaPlayerControl@@IAEXW4MediaStatus@QMediaPlayer@@@Z @ 268 NONAME ; void QMediaPlayerControl::mediaStatusChanged(enum QMediaPlayer::MediaStatus)
	?trUtf8@QRadioTuner@@SA?AVQString@@PBD0H@Z @ 269 NONAME ; class QString QRadioTuner::trUtf8(char const *, char const *, int)
	?trUtf8@QMediaPlaylist@@SA?AVQString@@PBD0H@Z @ 270 NONAME ; class QString QMediaPlaylist::trUtf8(char const *, char const *, int)
	??_EQMediaPlaylistReader@@UAE@I@Z @ 271 NONAME ; QMediaPlaylistReader::~QMediaPlaylistReader(unsigned int)
	?channelCount@QMediaResource@@QBEHXZ @ 272 NONAME ; int QMediaResource::channelCount(void) const
	?tr@QSoundEffect@@SA?AVQString@@PBD0H@Z @ 273 NONAME ; class QString QSoundEffect::tr(char const *, char const *, int)
	?qt_metacall@QMediaRecorderControl@@UAEHW4Call@QMetaObject@@HPAPAX@Z @ 274 NONAME ; int QMediaRecorderControl::qt_metacall(enum QMetaObject::Call, int, void * *)
	?setHue@QVideoWidget@@QAEXH@Z @ 275 NONAME ; void QVideoWidget::setHue(int)
	?tr@QGraphicsVideoItem@@SA?AVQString@@PBD0@Z @ 276 NONAME ; class QString QGraphicsVideoItem::tr(char const *, char const *)
	?activeChanged@QAbstractVideoSurface@@IAEX_N@Z @ 277 NONAME ; void QAbstractVideoSurface::activeChanged(bool)
	?imageFormatFromPixelFormat@QVideoFrame@@SA?AW4Format@QImage@@W4PixelFormat@1@@Z @ 278 NONAME ; enum QImage::Format QVideoFrame::imageFormatFromPixelFormat(enum QVideoFrame::PixelFormat)
	?contrastChanged@QVideoWindowControl@@IAEXH@Z @ 279 NONAME ; void QVideoWindowControl::contrastChanged(int)
	?stateChanged@QAudioOutput@@IAEXW4State@QAudio@@@Z @ 280 NONAME ; void QAudioOutput::stateChanged(enum QAudio::State)
	?addMedia@QMediaPlaylistProvider@@UAE_NABV?$QList@VQMediaContent@@@@@Z @ 281 NONAME ; bool QMediaPlaylistProvider::addMedia(class QList<class QMediaContent> const &)
	?error@QMediaRecorderControl@@IAEXHABVQString@@@Z @ 282 NONAME ; void QMediaRecorderControl::error(int, class QString const &)
	??0QMediaTimeInterval@@QAE@_J0@Z @ 283 NONAME ; QMediaTimeInterval::QMediaTimeInterval(long long, long long)
	??0QMediaPlaylistNavigator@@QAE@PAVQMediaPlaylistProvider@@PAVQObject@@@Z @ 284 NONAME ; QMediaPlaylistNavigator::QMediaPlaylistNavigator(class QMediaPlaylistProvider *, class QObject *)
	?latestTime@QMediaTimeRange@@QBE_JXZ @ 285 NONAME ; long long QMediaTimeRange::latestTime(void) const
	??_EQAbstractVideoBuffer@@UAE@I@Z @ 286 NONAME ; QAbstractVideoBuffer::~QAbstractVideoBuffer(unsigned int)
	??_EQAudioCaptureSource@@UAE@I@Z @ 287 NONAME ; QAudioCaptureSource::~QAudioCaptureSource(unsigned int)
	?d_func@QMediaRecorder@@ABEPBVQMediaRecorderPrivate@@XZ @ 288 NONAME ; class QMediaRecorderPrivate const * QMediaRecorder::d_func(void) const
	?setChannelCount@QAudioFormat@@QAEXH@Z @ 289 NONAME ; void QAudioFormat::setChannelCount(int)
	??0QMediaRecorder@@QAE@PAVQMediaObject@@PAVQObject@@@Z @ 290 NONAME ; QMediaRecorder::QMediaRecorder(class QMediaObject *, class QObject *)
	?qt_metacall@QMediaPlayerControl@@UAEHW4Call@QMetaObject@@HPAPAX@Z @ 291 NONAME ; int QMediaPlayerControl::qt_metacall(enum QMetaObject::Call, int, void * *)
	?reset@QAudioOutput@@QAEXXZ @ 292 NONAME ; void QAudioOutput::reset(void)
	?d_func@QMediaPlaylist@@AAEPAVQMediaPlaylistPrivate@@XZ @ 293 NONAME ; class QMediaPlaylistPrivate * QMediaPlaylist::d_func(void)
	?trUtf8@QAudioEndpointSelector@@SA?AVQString@@PBD0@Z @ 294 NONAME ; class QString QAudioEndpointSelector::trUtf8(char const *, char const *)
	?shuffle@QMediaPlaylist@@QAEXXZ @ 295 NONAME ; void QMediaPlaylist::shuffle(void)
	?metaObject@QSoundEffect@@UBEPBUQMetaObject@@XZ @ 296 NONAME ; struct QMetaObject const * QSoundEffect::metaObject(void) const
	?loops@QSoundEffect@@QBEHXZ @ 297 NONAME ABSENT ; int QSoundEffect::loops(void) const
	??_EQMediaPlaylist@@UAE@I@Z @ 298 NONAME ; QMediaPlaylist::~QMediaPlaylist(unsigned int)
	??0QVideoWindowControl@@IAE@PAVQObject@@@Z @ 299 NONAME ; QVideoWindowControl::QVideoWindowControl(class QObject *)
	?trUtf8@QMediaPlaylistIOPlugin@@SA?AVQString@@PBD0@Z @ 300 NONAME ; class QString QMediaPlaylistIOPlugin::trUtf8(char const *, char const *)
	?stateChanged@QRadioTunerControl@@IAEXW4State@QRadioTuner@@@Z @ 301 NONAME ; void QRadioTunerControl::stateChanged(enum QRadioTuner::State)
	?addMedia@QLocalMediaPlaylistProvider@@UAE_NABVQMediaContent@@@Z @ 302 NONAME ; bool QLocalMediaPlaylistProvider::addMedia(class QMediaContent const &)
	?qt_metacast@QMediaStreamsControl@@UAEPAXPBD@Z @ 303 NONAME ; void * QMediaStreamsControl::qt_metacast(char const *)
	?searchingChanged@QRadioTuner@@IAEX_N@Z @ 304 NONAME ; void QRadioTuner::searchingChanged(bool)
	?seekableChanged@QMediaPlayerControl@@IAEX_N@Z @ 305 NONAME ; void QMediaPlayerControl::seekableChanged(bool)
	?getStaticMetaObject@QRadioTunerControl@@SAABUQMetaObject@@XZ @ 306 NONAME ; struct QMetaObject const & QRadioTunerControl::getStaticMetaObject(void)
	?isValid@QAudioFormat@@QBE_NXZ @ 307 NONAME ; bool QAudioFormat::isValid(void) const
	??0QMediaServiceProviderHint@@QAE@ABV0@@Z @ 308 NONAME ; QMediaServiceProviderHint::QMediaServiceProviderHint(class QMediaServiceProviderHint const &)
	??_EQMediaPlaylistNavigator@@UAE@I@Z @ 309 NONAME ; QMediaPlaylistNavigator::~QMediaPlaylistNavigator(unsigned int)
	?qt_metacall@QMediaRecorder@@UAEHW4Call@QMetaObject@@HPAPAX@Z @ 310 NONAME ; int QMediaRecorder::qt_metacall(enum QMetaObject::Call, int, void * *)
	??0QAudioEncoderSettings@@QAE@XZ @ 311 NONAME ; QAudioEncoderSettings::QAudioEncoderSettings(void)
	?supportedFrequencies@QAudioDeviceInfo@@QBE?AV?$QList@H@@XZ @ 312 NONAME ; class QList<int> QAudioDeviceInfo::supportedFrequencies(void) const
	?setCodec@QImageEncoderSettings@@QAEXABVQString@@@Z @ 313 NONAME ; void QImageEncoderSettings::setCodec(class QString const &)
	?getStaticMetaObject@QMediaPlaylistSourceControl@@SAABUQMetaObject@@XZ @ 314 NONAME ; struct QMetaObject const & QMediaPlaylistSourceControl::getStaticMetaObject(void)
	??1QVideoFrame@@QAE@XZ @ 315 NONAME ; QVideoFrame::~QVideoFrame(void)
	?notifyInterval@QAudioInput@@QBEHXZ @ 316 NONAME ; int QAudioInput::notifyInterval(void) const
	?metaObject@QMediaServiceProvider@@UBEPBUQMetaObject@@XZ @ 317 NONAME ; struct QMetaObject const * QMediaServiceProvider::metaObject(void) const
	?setTimeout@QMediaImageViewer@@QAEXH@Z @ 318 NONAME ; void QMediaImageViewer::setTimeout(int)
	??0QMediaRecorderControl@@IAE@PAVQObject@@@Z @ 319 NONAME ; QMediaRecorderControl::QMediaRecorderControl(class QObject *)
	?staticMetaObject@QVideoWindowControl@@2UQMetaObject@@B @ 320 NONAME ; struct QMetaObject const QVideoWindowControl::staticMetaObject
	?channels@QAudioFormat@@QBEHXZ @ 321 NONAME ; int QAudioFormat::channels(void) const
	?setVolume@QRadioTuner@@QAEXH@Z @ 322 NONAME ; void QRadioTuner::setVolume(int)
	?qt_metacall@QAudioEndpointSelector@@UAEHW4Call@QMetaObject@@HPAPAX@Z @ 323 NONAME ; int QAudioEndpointSelector::qt_metacall(enum QMetaObject::Call, int, void * *)
	?setFrequency@QRadioTuner@@QAEXH@Z @ 324 NONAME ; void QRadioTuner::setFrequency(int)
	?cancelSearch@QRadioTuner@@QAEXXZ @ 325 NONAME ; void QRadioTuner::cancelSearch(void)
	?metaObject@QMediaPlaylistProvider@@UBEPBUQMetaObject@@XZ @ 326 NONAME ; struct QMetaObject const * QMediaPlaylistProvider::metaObject(void) const
	?mediaCount@QLocalMediaPlaylistProvider@@UBEHXZ @ 327 NONAME ; int QLocalMediaPlaylistProvider::mediaCount(void) const
	?tr@QMediaServiceProviderPlugin@@SA?AVQString@@PBD0H@Z @ 328 NONAME ; class QString QMediaServiceProviderPlugin::tr(char const *, char const *, int)
	?staticMetaObject@QImageEncoderControl@@2UQMetaObject@@B @ 329 NONAME ; struct QMetaObject const QImageEncoderControl::staticMetaObject
	?stop@QMediaPlayer@@QAEXXZ @ 330 NONAME ; void QMediaPlayer::stop(void)
	?tr@QMediaService@@SA?AVQString@@PBD0@Z @ 331 NONAME ; class QString QMediaService::tr(char const *, char const *)
	?bind@QMediaPlayer@@UAE_NPAVQObject@@@Z @ 332 NONAME ; bool QMediaPlayer::bind(class QObject *)
	?writableChanged@QMetaDataWriterControl@@IAEX_N@Z @ 333 NONAME ; void QMetaDataWriterControl::writableChanged(bool)
	?staticMetaObject@QMediaPlaylistSourceControl@@2UQMetaObject@@B @ 334 NONAME ; struct QMetaObject const QMediaPlaylistSourceControl::staticMetaObject
	?availableExtendedMetaData@QMediaRecorder@@QBE?AVQStringList@@XZ @ 335 NONAME ; class QStringList QMediaRecorder::availableExtendedMetaData(void) const
	?trUtf8@QAbstractAudioDeviceInfo@@SA?AVQString@@PBD0@Z @ 336 NONAME ; class QString QAbstractAudioDeviceInfo::trUtf8(char const *, char const *)
	?qt_metacast@QMediaObject@@UAEPAXPBD@Z @ 337 NONAME ; void * QMediaObject::qt_metacast(char const *)
	??0QVideoFrame@@QAE@XZ @ 338 NONAME ; QVideoFrame::QVideoFrame(void)
	?qt_metacast@QMediaPlaylistIOPlugin@@UAEPAXPBD@Z @ 339 NONAME ; void * QMediaPlaylistIOPlugin::qt_metacast(char const *)
	?media@QMediaImageViewer@@QBE?AVQMediaContent@@XZ @ 340 NONAME ; class QMediaContent QMediaImageViewer::media(void) const
	?isNull@QMediaServiceProviderHint@@QBE_NXZ @ 341 NONAME ; bool QMediaServiceProviderHint::isNull(void) const
	?setBufferSize@QAudioOutput@@QAEXH@Z @ 342 NONAME ; void QAudioOutput::setBufferSize(int)
	?metaObject@QRadioTunerControl@@UBEPBUQMetaObject@@XZ @ 343 NONAME ; struct QMetaObject const * QRadioTunerControl::metaObject(void) const
	?metaObject@QMediaRecorderControl@@UBEPBUQMetaObject@@XZ @ 344 NONAME ; struct QMetaObject const * QMediaRecorderControl::metaObject(void) const
	??1QMediaObject@@UAE@XZ @ 345 NONAME ; QMediaObject::~QMediaObject(void)
	?metaObject@QAudioSystemPlugin@@UBEPBUQMetaObject@@XZ @ 346 NONAME ; struct QMetaObject const * QAudioSystemPlugin::metaObject(void) const
	??_EQRadioTunerControl@@UAE@I@Z @ 347 NONAME ; QRadioTunerControl::~QRadioTunerControl(unsigned int)
	?paintEvent@QVideoWidget@@MAEXPAVQPaintEvent@@@Z @ 348 NONAME ; void QVideoWidget::paintEvent(class QPaintEvent *)
	?bufferStatusChanged@QMediaPlayerControl@@IAEXH@Z @ 349 NONAME ; void QMediaPlayerControl::bufferStatusChanged(int)
	?addMedia@QMediaPlaylistProvider@@UAE_NABVQMediaContent@@@Z @ 350 NONAME ; bool QMediaPlaylistProvider::addMedia(class QMediaContent const &)
	??0QMediaPlaylistIOPlugin@@QAE@PAVQObject@@@Z @ 351 NONAME ; QMediaPlaylistIOPlugin::QMediaPlaylistIOPlugin(class QObject *)
	??4QMediaServiceProviderHint@@QAEAAV0@ABV0@@Z @ 352 NONAME ; class QMediaServiceProviderHint & QMediaServiceProviderHint::operator=(class QMediaServiceProviderHint const &)
	?qt_metacast@QVideoRendererControl@@UAEPAXPBD@Z @ 353 NONAME ; void * QVideoRendererControl::qt_metacast(char const *)
	?containerMimeType@QMediaRecorder@@QBE?AVQString@@XZ @ 354 NONAME ; class QString QMediaRecorder::containerMimeType(void) const
	??YQMediaTimeRange@@QAEAAV0@ABVQMediaTimeInterval@@@Z @ 355 NONAME ; class QMediaTimeRange & QMediaTimeRange::operator+=(class QMediaTimeInterval const &)
	??9QVideoEncoderSettings@@QBE_NABV0@@Z @ 356 NONAME ; bool QVideoEncoderSettings::operator!=(class QVideoEncoderSettings const &) const
	?error@QMediaPlaylist@@QBE?AW4Error@1@XZ @ 357 NONAME ; enum QMediaPlaylist::Error QMediaPlaylist::error(void) const
	??8@YA_NABVQMediaTimeRange@@0@Z @ 358 NONAME ; bool operator==(class QMediaTimeRange const &, class QMediaTimeRange const &)
	?qt_metacall@QImageEncoderControl@@UAEHW4Call@QMetaObject@@HPAPAX@Z @ 359 NONAME ; int QImageEncoderControl::qt_metacall(enum QMetaObject::Call, int, void * *)
	??0QVideoEncoderSettings@@QAE@ABV0@@Z @ 360 NONAME ; QVideoEncoderSettings::QVideoEncoderSettings(class QVideoEncoderSettings const &)
	??0QMediaImageViewer@@QAE@PAVQObject@@@Z @ 361 NONAME ; QMediaImageViewer::QMediaImageViewer(class QObject *)
	?device@QMediaServiceProviderHint@@QBE?AVQByteArray@@XZ @ 362 NONAME ; class QByteArray QMediaServiceProviderHint::device(void) const
	?qt_metacast@QMediaRecorder@@UAEPAXPBD@Z @ 363 NONAME ; void * QMediaRecorder::qt_metacast(char const *)
	?supportedFormatsChanged@QAbstractVideoSurface@@IAEXXZ @ 364 NONAME ; void QAbstractVideoSurface::supportedFormatsChanged(void)
	?trUtf8@QAbstractAudioInput@@SA?AVQString@@PBD0@Z @ 365 NONAME ; class QString QAbstractAudioInput::trUtf8(char const *, char const *)
	??0QMediaServiceProviderHint@@QAE@ABVQString@@ABVQStringList@@@Z @ 366 NONAME ; QMediaServiceProviderHint::QMediaServiceProviderHint(class QString const &, class QStringList const &)
	?staticMetaObject@QRadioTuner@@2UQMetaObject@@B @ 367 NONAME ; struct QMetaObject const QRadioTuner::staticMetaObject
	?mutedChanged@QMediaRecorder@@IAEX_N@Z @ 368 NONAME ; void QMediaRecorder::mutedChanged(bool)
	?trUtf8@QVideoWidget@@SA?AVQString@@PBD0H@Z @ 369 NONAME ; class QString QVideoWidget::trUtf8(char const *, char const *, int)
	?playbackModeChanged@QMediaPlaylistControl@@IAEXW4PlaybackMode@QMediaPlaylist@@@Z @ 370 NONAME ; void QMediaPlaylistControl::playbackModeChanged(enum QMediaPlaylist::PlaybackMode)
	??1QImageEncoderControl@@UAE@XZ @ 371 NONAME ; QImageEncoderControl::~QImageEncoderControl(void)
	?volume@QRadioTuner@@QBEHXZ @ 372 NONAME ; int QRadioTuner::volume(void) const
	?trUtf8@QMediaStreamsControl@@SA?AVQString@@PBD0H@Z @ 373 NONAME ; class QString QMediaStreamsControl::trUtf8(char const *, char const *, int)
	??1QAudioSystemPlugin@@UAE@XZ @ 374 NONAME ; QAudioSystemPlugin::~QAudioSystemPlugin(void)
	?load@QMediaPlaylistProvider@@UAE_NABVQUrl@@PBD@Z @ 375 NONAME ; bool QMediaPlaylistProvider::load(class QUrl const &, char const *)
	??9QMediaContent@@QBE_NABV0@@Z @ 376 NONAME ; bool QMediaContent::operator!=(class QMediaContent const &) const
	?sizeHint@QVideoSurfaceFormat@@QBE?AVQSize@@XZ @ 377 NONAME ; class QSize QVideoSurfaceFormat::sizeHint(void) const
	?setError@QAbstractVideoSurface@@IAEXW4Error@1@@Z @ 378 NONAME ; void QAbstractVideoSurface::setError(enum QAbstractVideoSurface::Error)
	?hueChanged@QVideoWidgetControl@@IAEXH@Z @ 379 NONAME ; void QVideoWidgetControl::hueChanged(int)
	?tr@QMediaPlaylistControl@@SA?AVQString@@PBD0H@Z @ 380 NONAME ; class QString QMediaPlaylistControl::tr(char const *, char const *, int)
	?sampleType@QAudioFormat@@QBE?AW4SampleType@1@XZ @ 381 NONAME ; enum QAudioFormat::SampleType QAudioFormat::sampleType(void) const
	?setChannelCount@QMediaResource@@QAEXH@Z @ 382 NONAME ; void QMediaResource::setChannelCount(int)
	?qt_metacast@QRadioTuner@@UAEPAXPBD@Z @ 383 NONAME ; void * QRadioTuner::qt_metacast(char const *)
	?isReadOnly@QMediaPlaylistProvider@@UBE_NXZ @ 384 NONAME ; bool QMediaPlaylistProvider::isReadOnly(void) const
	?trUtf8@QMediaPlaylistProvider@@SA?AVQString@@PBD0@Z @ 385 NONAME ; class QString QMediaPlaylistProvider::trUtf8(char const *, char const *)
	?pixelFormat@QVideoFrame@@QBE?AW4PixelFormat@1@XZ @ 386 NONAME ; enum QVideoFrame::PixelFormat QVideoFrame::pixelFormat(void) const
	?audioAvailableChanged@QMediaPlayerControl@@IAEX_N@Z @ 387 NONAME ; void QMediaPlayerControl::audioAvailableChanged(bool)
	?timerEvent@QGraphicsVideoItem@@MAEXPAVQTimerEvent@@@Z @ 388 NONAME ; void QGraphicsVideoItem::timerEvent(class QTimerEvent *)
	?nextIndex@QMediaPlaylistNavigator@@QBEHH@Z @ 389 NONAME ; int QMediaPlaylistNavigator::nextIndex(int) const
	??8QAudioEncoderSettings@@QBE_NABV0@@Z @ 390 NONAME ; bool QAudioEncoderSettings::operator==(class QAudioEncoderSettings const &) const
	?qt_metacall@QMediaStreamsControl@@UAEHW4Call@QMetaObject@@HPAPAX@Z @ 391 NONAME ; int QMediaStreamsControl::qt_metacall(enum QMetaObject::Call, int, void * *)
	?mediaObject@QGraphicsVideoItem@@UBEPAVQMediaObject@@XZ @ 392 NONAME ; class QMediaObject * QGraphicsVideoItem::mediaObject(void) const
	?tr@QVideoEncoderControl@@SA?AVQString@@PBD0H@Z @ 393 NONAME ; class QString QVideoEncoderControl::tr(char const *, char const *, int)
	?trUtf8@QMediaPlaylist@@SA?AVQString@@PBD0@Z @ 394 NONAME ; class QString QMediaPlaylist::trUtf8(char const *, char const *)
	?availableMetaData@QMediaObject@@QBE?AV?$QList@W4MetaData@QtMultimediaKit@@@@XZ @ 395 NONAME ; class QList<enum QtMultimediaKit::MetaData> QMediaObject::availableMetaData(void) const
	?getStaticMetaObject@QAudioCaptureSource@@SAABUQMetaObject@@XZ @ 396 NONAME ; struct QMetaObject const & QAudioCaptureSource::getStaticMetaObject(void)
	?isContinuous@QMediaTimeRange@@QBE_NXZ @ 397 NONAME ; bool QMediaTimeRange::isContinuous(void) const
	?insertMedia@QMediaPlaylistProvider@@UAE_NHABV?$QList@VQMediaContent@@@@@Z @ 398 NONAME ; bool QMediaPlaylistProvider::insertMedia(int, class QList<class QMediaContent> const &)
	?staticMetaObject@QMediaStreamsControl@@2UQMetaObject@@B @ 399 NONAME ; struct QMetaObject const QMediaStreamsControl::staticMetaObject
	?qt_metacast@QMediaPlaylistNavigator@@UAEPAXPBD@Z @ 400 NONAME ; void * QMediaPlaylistNavigator::qt_metacast(char const *)
	?activeEndpointChanged@QAudioEndpointSelector@@IAEXABVQString@@@Z @ 401 NONAME ; void QAudioEndpointSelector::activeEndpointChanged(class QString const &)
	?save@QMediaPlaylist@@QAE_NABVQUrl@@PBD@Z @ 402 NONAME ; bool QMediaPlaylist::save(class QUrl const &, char const *)
	?supportedChannels@QAudioDeviceInfo@@QBE?AV?$QList@H@@XZ @ 403 NONAME ; class QList<int> QAudioDeviceInfo::supportedChannels(void) const
	?setCodec@QVideoEncoderSettings@@QAEXABVQString@@@Z @ 404 NONAME ; void QVideoEncoderSettings::setCodec(class QString const &)
	?d_func@QAudioCaptureSource@@ABEPBVQAudioCaptureSourcePrivate@@XZ @ 405 NONAME ; class QAudioCaptureSourcePrivate const * QAudioCaptureSource::d_func(void) const
	?trUtf8@QMediaImageViewer@@SA?AVQString@@PBD0@Z @ 406 NONAME ; class QString QMediaImageViewer::trUtf8(char const *, char const *)
	?pause@QMediaPlayer@@QAEXXZ @ 407 NONAME ; void QMediaPlayer::pause(void)
	?staticMetaObject@QMediaControl@@2UQMetaObject@@B @ 408 NONAME ; struct QMetaObject const QMediaControl::staticMetaObject
	?isAvailable@QRadioTuner@@UBE_NXZ @ 409 NONAME ; bool QRadioTuner::isAvailable(void) const
	??G@YA?AVQMediaTimeRange@@ABV0@0@Z @ 410 NONAME ; class QMediaTimeRange operator-(class QMediaTimeRange const &, class QMediaTimeRange const &)
	?unmap@QVideoFrame@@QAEXXZ @ 411 NONAME ; void QVideoFrame::unmap(void)
	?qt_metacast@QImageEncoderControl@@UAEPAXPBD@Z @ 412 NONAME ; void * QImageEncoderControl::qt_metacast(char const *)
	??0QMediaServiceProviderHint@@QAE@XZ @ 413 NONAME ; QMediaServiceProviderHint::QMediaServiceProviderHint(void)
	??9QImageEncoderSettings@@QBE_NABV0@@Z @ 414 NONAME ; bool QImageEncoderSettings::operator!=(class QImageEncoderSettings const &) const
	?play@QMediaImageViewer@@QAEXXZ @ 415 NONAME ; void QMediaImageViewer::play(void)
	?setPosition@QMediaPlayer@@QAEX_J@Z @ 416 NONAME ; void QMediaPlayer::setPosition(long long)
	?setResolution@QMediaResource@@QAEXHH@Z @ 417 NONAME ; void QMediaResource::setResolution(int, int)
	??_EQVideoDeviceControl@@UAE@I@Z @ 418 NONAME ; QVideoDeviceControl::~QVideoDeviceControl(unsigned int)
	?addInterval@QMediaTimeRange@@QAEX_J0@Z @ 419 NONAME ; void QMediaTimeRange::addInterval(long long, long long)
	??0QMediaContent@@QAE@ABV0@@Z @ 420 NONAME ; QMediaContent::QMediaContent(class QMediaContent const &)
	?videoBitRate@QMediaResource@@QBEHXZ @ 421 NONAME ; int QMediaResource::videoBitRate(void) const
	?statusChanged@QAudioCaptureSource@@AAEXXZ @ 422 NONAME ; void QAudioCaptureSource::statusChanged(void)
	?trUtf8@QAudioOutput@@SA?AVQString@@PBD0H@Z @ 423 NONAME ; class QString QAudioOutput::trUtf8(char const *, char const *, int)
	?availabilityError@QMediaRecorder@@QBE?AW4AvailabilityError@QtMultimediaKit@@XZ @ 424 NONAME ; enum QtMultimediaKit::AvailabilityError QMediaRecorder::availabilityError(void) const
	?setMediaObject@QGraphicsVideoItem@@MAE_NPAVQMediaObject@@@Z @ 425 NONAME ; bool QGraphicsVideoItem::setMediaObject(class QMediaObject *)
	?isFormatSupported@QAbstractVideoSurface@@UBE_NABVQVideoSurfaceFormat@@@Z @ 426 NONAME ; bool QAbstractVideoSurface::isFormatSupported(class QVideoSurfaceFormat const &) const
	??0QMetaDataWriterControl@@IAE@PAVQObject@@@Z @ 427 NONAME ; QMetaDataWriterControl::QMetaDataWriterControl(class QObject *)
	?frequencyChanged@QRadioTuner@@IAEXH@Z @ 428 NONAME ; void QRadioTuner::frequencyChanged(int)
	?hideEvent@QVideoWidget@@MAEXPAVQHideEvent@@@Z @ 429 NONAME ; void QVideoWidget::hideEvent(class QHideEvent *)
	?supportedMimeTypes@QMediaServiceProvider@@UBE?AVQStringList@@ABVQByteArray@@H@Z @ 430 NONAME ; class QStringList QMediaServiceProvider::supportedMimeTypes(class QByteArray const &, int) const
	?qt_metacast@QMediaPlayer@@UAEPAXPBD@Z @ 431 NONAME ; void * QMediaPlayer::qt_metacast(char const *)
	?metaDataAvailableChanged@QMediaRecorder@@IAEX_N@Z @ 432 NONAME ; void QMediaRecorder::metaDataAvailableChanged(bool)
	?metaDataAvailableChanged@QMediaObject@@IAEX_N@Z @ 433 NONAME ; void QMediaObject::metaDataAvailableChanged(bool)
	?stop@QAudioInput@@QAEXXZ @ 434 NONAME ; void QAudioInput::stop(void)
	??0QVideoFrame@@QAE@ABVQImage@@@Z @ 435 NONAME ; QVideoFrame::QVideoFrame(class QImage const &)
	?realm@QAudioDeviceInfo@@ABE?AVQString@@XZ @ 436 NONAME ; class QString QAudioDeviceInfo::realm(void) const
	?trUtf8@QRadioTunerControl@@SA?AVQString@@PBD0@Z @ 437 NONAME ; class QString QRadioTunerControl::trUtf8(char const *, char const *)
	?notify@QAbstractAudioInput@@IAEXXZ @ 438 NONAME ; void QAbstractAudioInput::notify(void)
	?metaDataAvailableChanged@QMetaDataReaderControl@@IAEX_N@Z @ 439 NONAME ; void QMetaDataReaderControl::metaDataAvailableChanged(bool)
	?request@QMediaResource@@QBE?AVQNetworkRequest@@XZ @ 440 NONAME ; class QNetworkRequest QMediaResource::request(void) const
	?handle@QVideoFrame@@QBE?AVQVariant@@XZ @ 441 NONAME ; class QVariant QVideoFrame::handle(void) const
	?setEncodingMode@QVideoEncoderSettings@@QAEXW4EncodingMode@QtMultimediaKit@@@Z @ 442 NONAME ; void QVideoEncoderSettings::setEncodingMode(enum QtMultimediaKit::EncodingMode)
	??1QMediaService@@UAE@XZ @ 443 NONAME ; QMediaService::~QMediaService(void)
	?volume@QMediaPlayer@@QBEHXZ @ 444 NONAME ; int QMediaPlayer::volume(void) const
	?tr@QMetaDataReaderControl@@SA?AVQString@@PBD0@Z @ 445 NONAME ; class QString QMetaDataReaderControl::tr(char const *, char const *)
	?supportedContainers@QMediaRecorder@@QBE?AVQStringList@@XZ @ 446 NONAME ; class QStringList QMediaRecorder::supportedContainers(void) const
	??0QVideoFrame@@QAE@PAVQAbstractVideoBuffer@@ABVQSize@@W4PixelFormat@0@@Z @ 447 NONAME ; QVideoFrame::QVideoFrame(class QAbstractVideoBuffer *, class QSize const &, enum QVideoFrame::PixelFormat)
	?d_func@QVideoWidget@@ABEPBVQVideoWidgetPrivate@@XZ @ 448 NONAME ; class QVideoWidgetPrivate const * QVideoWidget::d_func(void) const
	?durationChanged@QMediaRecorder@@IAEX_J@Z @ 449 NONAME ; void QMediaRecorder::durationChanged(long long)
	?trUtf8@QVideoWidgetControl@@SA?AVQString@@PBD0H@Z @ 450 NONAME ; class QString QVideoWidgetControl::trUtf8(char const *, char const *, int)
	?errorString@QMediaRecorder@@QBE?AVQString@@XZ @ 451 NONAME ; class QString QMediaRecorder::errorString(void) const
	?getStaticMetaObject@QMediaPlayerControl@@SAABUQMetaObject@@XZ @ 452 NONAME ; struct QMetaObject const & QMediaPlayerControl::getStaticMetaObject(void)
	?propertyNames@QVideoSurfaceFormat@@QBE?AV?$QList@VQByteArray@@@@XZ @ 453 NONAME ; class QList<class QByteArray> QVideoSurfaceFormat::propertyNames(void) const
	?trUtf8@QMetaDataWriterControl@@SA?AVQString@@PBD0H@Z @ 454 NONAME ; class QString QMetaDataWriterControl::trUtf8(char const *, char const *, int)
	??0QImageVideoBuffer@@QAE@ABVQImage@@@Z @ 455 NONAME ; QImageVideoBuffer::QImageVideoBuffer(class QImage const &)
	?pixelFormatFromImageFormat@QVideoFrame@@SA?AW4PixelFormat@1@W4Format@QImage@@@Z @ 456 NONAME ; enum QVideoFrame::PixelFormat QVideoFrame::pixelFormatFromImageFormat(enum QImage::Format)
	?defaultServiceProvider@QMediaServiceProvider@@SAPAV1@XZ @ 457 NONAME ; class QMediaServiceProvider * QMediaServiceProvider::defaultServiceProvider(void)
	?tr@QAudioCaptureSource@@SA?AVQString@@PBD0H@Z @ 458 NONAME ; class QString QAudioCaptureSource::tr(char const *, char const *, int)
	?start@QMediaTimeInterval@@QBE_JXZ @ 459 NONAME ; long long QMediaTimeInterval::start(void) const
	?staticMetaObject@QMediaPlaylistProvider@@2UQMetaObject@@B @ 460 NONAME ; struct QMetaObject const QMediaPlaylistProvider::staticMetaObject
	?isEmpty@QMediaTimeRange@@QBE_NXZ @ 461 NONAME ; bool QMediaTimeRange::isEmpty(void) const
	?staticMetaObject@QMediaPlaylistNavigator@@2UQMetaObject@@B @ 462 NONAME ; struct QMetaObject const QMediaPlaylistNavigator::staticMetaObject
	?features@QMediaServiceProviderHint@@QBE?AV?$QFlags@W4Feature@QMediaServiceProviderHint@@@@XZ @ 463 NONAME ; class QFlags<enum QMediaServiceProviderHint::Feature> QMediaServiceProviderHint::features(void) const
	?isNull@QMediaResource@@QBE_NXZ @ 464 NONAME ; bool QMediaResource::isNull(void) const
	??8QMediaResource@@QBE_NABV0@@Z @ 465 NONAME ; bool QMediaResource::operator==(class QMediaResource const &) const
	?bufferStatusChanged@QMediaPlayer@@IAEXH@Z @ 466 NONAME ; void QMediaPlayer::bufferStatusChanged(int)
	?error@QAudioOutput@@QBE?AW4Error@QAudio@@XZ @ 467 NONAME ; enum QAudio::Error QAudioOutput::error(void) const
	?d_func@QRadioTuner@@ABEPBVQRadioTunerPrivate@@XZ @ 468 NONAME ; class QRadioTunerPrivate const * QRadioTuner::d_func(void) const
	?d_func@QMemoryVideoBuffer@@ABEPBVQMemoryVideoBufferPrivate@@XZ @ 469 NONAME ; class QMemoryVideoBufferPrivate const * QMemoryVideoBuffer::d_func(void) const
	?trUtf8@QAudioEncoderControl@@SA?AVQString@@PBD0H@Z @ 470 NONAME ; class QString QAudioEncoderControl::trUtf8(char const *, char const *, int)
	?trUtf8@QMediaPlayer@@SA?AVQString@@PBD0@Z @ 471 NONAME ; class QString QMediaPlayer::trUtf8(char const *, char const *)
	?elapsedUSecs@QAudioOutput@@QBE_JXZ @ 472 NONAME ; long long QAudioOutput::elapsedUSecs(void) const
	??8@YA_NABVQMediaTimeInterval@@0@Z @ 473 NONAME ; bool operator==(class QMediaTimeInterval const &, class QMediaTimeInterval const &)
	?containerDescription@QMediaRecorder@@QBE?AVQString@@ABV2@@Z @ 474 NONAME ; class QString QMediaRecorder::containerDescription(class QString const &) const
	?trUtf8@QVideoWindowControl@@SA?AVQString@@PBD0H@Z @ 475 NONAME ; class QString QVideoWindowControl::trUtf8(char const *, char const *, int)
	?isMuted@QSoundEffect@@QBE_NXZ @ 476 NONAME ; bool QSoundEffect::isMuted(void) const
	?volumeChanged@QMediaPlayer@@IAEXH@Z @ 477 NONAME ; void QMediaPlayer::volumeChanged(int)
	??1QVideoWidgetControl@@UAE@XZ @ 478 NONAME ; QVideoWidgetControl::~QVideoWidgetControl(void)
	??_EQMediaRecorderControl@@UAE@I@Z @ 479 NONAME ; QMediaRecorderControl::~QMediaRecorderControl(unsigned int)
	?volumeChanged@QRadioTunerControl@@IAEXH@Z @ 480 NONAME ; void QRadioTunerControl::volumeChanged(int)
	??_EQMediaContainerControl@@UAE@I@Z @ 481 NONAME ; QMediaContainerControl::~QMediaContainerControl(unsigned int)
	?tr@QAudioInput@@SA?AVQString@@PBD0H@Z @ 482 NONAME ; class QString QAudioInput::tr(char const *, char const *, int)
	??8QMediaContent@@QBE_NABV0@@Z @ 483 NONAME ; bool QMediaContent::operator==(class QMediaContent const &) const
	?getStaticMetaObject@QImageEncoderControl@@SAABUQMetaObject@@XZ @ 484 NONAME ; struct QMetaObject const & QImageEncoderControl::getStaticMetaObject(void)
	?durationChanged@QMediaRecorderControl@@IAEX_J@Z @ 485 NONAME ; void QMediaRecorderControl::durationChanged(long long)
	?getStaticMetaObject@QMetaDataReaderControl@@SAABUQMetaObject@@XZ @ 486 NONAME ; struct QMetaObject const & QMetaDataReaderControl::getStaticMetaObject(void)
	?hue@QVideoWidget@@QBEHXZ @ 487 NONAME ; int QVideoWidget::hue(void) const
	?handleType@QVideoSurfaceFormat@@QBE?AW4HandleType@QAbstractVideoBuffer@@XZ @ 488 NONAME ; enum QAbstractVideoBuffer::HandleType QVideoSurfaceFormat::handleType(void) const
	?setNotifyInterval@QAudioOutput@@QAEXH@Z @ 489 NONAME ; void QAudioOutput::setNotifyInterval(int)
	?start@QAbstractVideoSurface@@UAE_NABVQVideoSurfaceFormat@@@Z @ 490 NONAME ; bool QAbstractVideoSurface::start(class QVideoSurfaceFormat const &)
	?processedUSecs@QAudioInput@@QBE_JXZ @ 491 NONAME ; long long QAudioInput::processedUSecs(void) const
	?tr@QMediaObject@@SA?AVQString@@PBD0H@Z @ 492 NONAME ; class QString QMediaObject::tr(char const *, char const *, int)
	?fullScreenChanged@QVideoWindowControl@@IAEX_N@Z @ 493 NONAME ; void QVideoWindowControl::fullScreenChanged(bool)
	?play@QSoundEffect@@QAEXXZ @ 494 NONAME ; void QSoundEffect::play(void)
	?stop@QAbstractVideoSurface@@UAEXXZ @ 495 NONAME ; void QAbstractVideoSurface::stop(void)
	?contains@QMediaTimeRange@@QBE_N_J@Z @ 496 NONAME ; bool QMediaTimeRange::contains(long long) const
	?setMuted@QMediaPlayer@@QAEX_N@Z @ 497 NONAME ; void QMediaPlayer::setMuted(bool)
	?tr@QRadioTunerControl@@SA?AVQString@@PBD0@Z @ 498 NONAME ; class QString QRadioTunerControl::tr(char const *, char const *)
	?surfaceFormat@QAbstractVideoSurface@@QBE?AVQVideoSurfaceFormat@@XZ @ 499 NONAME ; class QVideoSurfaceFormat QAbstractVideoSurface::surfaceFormat(void) const
	?addPropertyWatch@QMediaObject@@IAEXABVQByteArray@@@Z @ 500 NONAME ; void QMediaObject::addPropertyWatch(class QByteArray const &)
	??_EQMediaPlaylistIOPlugin@@UAE@I@Z @ 501 NONAME ; QMediaPlaylistIOPlugin::~QMediaPlaylistIOPlugin(unsigned int)
	?trUtf8@QMediaPlayerControl@@SA?AVQString@@PBD0H@Z @ 502 NONAME ; class QString QMediaPlayerControl::trUtf8(char const *, char const *, int)
	?setVideoBitRate@QMediaResource@@QAEXH@Z @ 503 NONAME ; void QMediaResource::setVideoBitRate(int)
	?qt_metacall@QRadioTuner@@UAEHW4Call@QMetaObject@@HPAPAX@Z @ 504 NONAME ; int QRadioTuner::qt_metacall(enum QMetaObject::Call, int, void * *)
	?frequencyChanged@QRadioTunerControl@@IAEXH@Z @ 505 NONAME ; void QRadioTunerControl::frequencyChanged(int)
	?pause@QMediaRecorder@@QAEXXZ @ 506 NONAME ; void QMediaRecorder::pause(void)
	?fullScreenChanged@QVideoWidgetControl@@IAEX_N@Z @ 507 NONAME ; void QVideoWidgetControl::fullScreenChanged(bool)
	?intervals@QMediaTimeRange@@QBE?AV?$QList@VQMediaTimeInterval@@@@XZ @ 508 NONAME ; class QList<class QMediaTimeInterval> QMediaTimeRange::intervals(void) const
	?bytesReady@QAudioInput@@QBEHXZ @ 509 NONAME ; int QAudioInput::bytesReady(void) const
	?tr@QMediaServiceProviderPlugin@@SA?AVQString@@PBD0@Z @ 510 NONAME ; class QString QMediaServiceProviderPlugin::tr(char const *, char const *)
	?stateChanged@QMediaPlayerControl@@IAEXW4State@QMediaPlayer@@@Z @ 511 NONAME ; void QMediaPlayerControl::stateChanged(enum QMediaPlayer::State)
	?tr@QAbstractAudioOutput@@SA?AVQString@@PBD0H@Z @ 512 NONAME ; class QString QAbstractAudioOutput::tr(char const *, char const *, int)
	?previous@QMediaPlaylist@@QAEXXZ @ 513 NONAME ; void QMediaPlaylist::previous(void)
	?stereoMode@QRadioTuner@@QBE?AW4StereoMode@1@XZ @ 514 NONAME ; enum QRadioTuner::StereoMode QRadioTuner::stereoMode(void) const
	?metaObject@QMediaPlaylist@@UBEPBUQMetaObject@@XZ @ 515 NONAME ; struct QMetaObject const * QMediaPlaylist::metaObject(void) const
	?trUtf8@QVideoWindowControl@@SA?AVQString@@PBD0@Z @ 516 NONAME ; class QString QVideoWindowControl::trUtf8(char const *, char const *)
	?stop@QMediaRecorder@@QAEXXZ @ 517 NONAME ; void QMediaRecorder::stop(void)
	?setViewport@QVideoSurfaceFormat@@QAEXABVQRect@@@Z @ 518 NONAME ; void QVideoSurfaceFormat::setViewport(class QRect const &)
	?setPlaybackMode@QMediaPlaylistNavigator@@QAEXW4PlaybackMode@QMediaPlaylist@@@Z @ 519 NONAME ; void QMediaPlaylistNavigator::setPlaybackMode(enum QMediaPlaylist::PlaybackMode)
	?tr@QMediaPlaylist@@SA?AVQString@@PBD0@Z @ 520 NONAME ; class QString QMediaPlaylist::tr(char const *, char const *)
	?playbackRate@QMediaPlayer@@QBEMXZ @ 521 NONAME ; float QMediaPlayer::playbackRate(void) const
	?metaObject@QMediaStreamsControl@@UBEPBUQMetaObject@@XZ @ 522 NONAME ; struct QMetaObject const * QMediaStreamsControl::metaObject(void) const
	?metaObject@QMediaObject@@UBEPBUQMetaObject@@XZ @ 523 NONAME ; struct QMetaObject const * QMediaObject::metaObject(void) const
	?d_func@QMediaRecorder@@AAEPAVQMediaRecorderPrivate@@XZ @ 524 NONAME ; class QMediaRecorderPrivate * QMediaRecorder::d_func(void)
	?brightnessChanged@QVideoWindowControl@@IAEXH@Z @ 525 NONAME ; void QVideoWindowControl::brightnessChanged(int)
	?stereoStatusChanged@QRadioTuner@@IAEX_N@Z @ 526 NONAME ; void QRadioTuner::stereoStatusChanged(bool)
	?setQuality@QVideoEncoderSettings@@QAEXW4EncodingQuality@QtMultimediaKit@@@Z @ 527 NONAME ; void QVideoEncoderSettings::setQuality(enum QtMultimediaKit::EncodingQuality)
	?staticMetaObject@QMetaDataReaderControl@@2UQMetaObject@@B @ 528 NONAME ; struct QMetaObject const QMetaDataReaderControl::staticMetaObject
	?isNull@QAudioEncoderSettings@@QBE_NXZ @ 529 NONAME ; bool QAudioEncoderSettings::isNull(void) const
	?handleType@QVideoFrame@@QBE?AW4HandleType@QAbstractVideoBuffer@@XZ @ 530 NONAME ; enum QAbstractVideoBuffer::HandleType QVideoFrame::handleType(void) const
	?setAudioInput@QAudioCaptureSource@@QAEXABVQString@@@Z @ 531 NONAME ; void QAudioCaptureSource::setAudioInput(class QString const &)
	?mapMode@QImageVideoBuffer@@UBE?AW4MapMode@QAbstractVideoBuffer@@XZ @ 532 NONAME ; enum QAbstractVideoBuffer::MapMode QImageVideoBuffer::mapMode(void) const
	?mediaAboutToBeRemoved@QMediaPlaylist@@IAEXHH@Z @ 533 NONAME ; void QMediaPlaylist::mediaAboutToBeRemoved(int, int)
	??8QVideoEncoderSettings@@QBE_NABV0@@Z @ 534 NONAME ; bool QVideoEncoderSettings::operator==(class QVideoEncoderSettings const &) const
	??0QMediaResource@@QAE@XZ @ 535 NONAME ; QMediaResource::QMediaResource(void)
	?staticMetaObject@QAudioEncoderControl@@2UQMetaObject@@B @ 536 NONAME ; struct QMetaObject const QAudioEncoderControl::staticMetaObject
	?isAvailable@QMediaObject@@UBE_NXZ @ 537 NONAME ; bool QMediaObject::isAvailable(void) const
	?trUtf8@QVideoRendererControl@@SA?AVQString@@PBD0@Z @ 538 NONAME ; class QString QVideoRendererControl::trUtf8(char const *, char const *)
	??0QAudioEncoderControl@@IAE@PAVQObject@@@Z @ 539 NONAME ; QAudioEncoderControl::QAudioEncoderControl(class QObject *)
	?supportedCodecs@QAudioDeviceInfo@@QBE?AVQStringList@@XZ @ 540 NONAME ; class QStringList QAudioDeviceInfo::supportedCodecs(void) const
	?playlistProviderChanged@QMediaPlaylistControl@@IAEXXZ @ 541 NONAME ; void QMediaPlaylistControl::playlistProviderChanged(void)
	??4QMediaContent@@QAEAAV0@ABV0@@Z @ 542 NONAME ; class QMediaContent & QMediaContent::operator=(class QMediaContent const &)
	?getStaticMetaObject@QMediaStreamsControl@@SAABUQMetaObject@@XZ @ 543 NONAME ; struct QMetaObject const & QMediaStreamsControl::getStaticMetaObject(void)
	??1QAudioEncoderControl@@UAE@XZ @ 544 NONAME ; QAudioEncoderControl::~QAudioEncoderControl(void)
	?trUtf8@QLocalMediaPlaylistProvider@@SA?AVQString@@PBD0H@Z @ 545 NONAME ; class QString QLocalMediaPlaylistProvider::trUtf8(char const *, char const *, int)
	?availabilityError@QRadioTuner@@UBE?AW4AvailabilityError@QtMultimediaKit@@XZ @ 546 NONAME ; enum QtMultimediaKit::AvailabilityError QRadioTuner::availabilityError(void) const
	??0QVideoFrame@@QAE@HABVQSize@@HW4PixelFormat@0@@Z @ 547 NONAME ; QVideoFrame::QVideoFrame(int, class QSize const &, int, enum QVideoFrame::PixelFormat)
	?trUtf8@QMediaPlaylistSourceControl@@SA?AVQString@@PBD0H@Z @ 548 NONAME ; class QString QMediaPlaylistSourceControl::trUtf8(char const *, char const *, int)
	?handle@QAbstractVideoBuffer@@UBE?AVQVariant@@XZ @ 549 NONAME ; class QVariant QAbstractVideoBuffer::handle(void) const
	?setOutputLocation@QMediaRecorder@@QAE_NABVQUrl@@@Z @ 550 NONAME ; bool QMediaRecorder::setOutputLocation(class QUrl const &)
	?canonicalRequest@QMediaContent@@QBE?AVQNetworkRequest@@XZ @ 551 NONAME ; class QNetworkRequest QMediaContent::canonicalRequest(void) const
	?error@QRadioTuner@@QBE?AW4Error@1@XZ @ 552 NONAME ; enum QRadioTuner::Error QRadioTuner::error(void) const
	?codec@QVideoEncoderSettings@@QBE?AVQString@@XZ @ 553 NONAME ; class QString QVideoEncoderSettings::codec(void) const
	?qt_metacall@QAudioEncoderControl@@UAEHW4Call@QMetaObject@@HPAPAX@Z @ 554 NONAME ; int QAudioEncoderControl::qt_metacall(enum QMetaObject::Call, int, void * *)
	?trUtf8@QMediaService@@SA?AVQString@@PBD0H@Z @ 555 NONAME ; class QString QMediaService::trUtf8(char const *, char const *, int)
	?removeMedia@QMediaPlaylistProvider@@UAE_NHH@Z @ 556 NONAME ; bool QMediaPlaylistProvider::removeMedia(int, int)
	?saturationChanged@QVideoWindowControl@@IAEXH@Z @ 557 NONAME ; void QVideoWindowControl::saturationChanged(int)
	??0QMediaPlaylistControl@@IAE@PAVQObject@@@Z @ 558 NONAME ; QMediaPlaylistControl::QMediaPlaylistControl(class QObject *)
	?error@QMediaRecorder@@QBE?AW4Error@1@XZ @ 559 NONAME ; enum QMediaRecorder::Error QMediaRecorder::error(void) const
	?canonicalResource@QMediaContent@@QBE?AVQMediaResource@@XZ @ 560 NONAME ; class QMediaResource QMediaContent::canonicalResource(void) const
	?metaObject@QAbstractVideoSurface@@UBEPBUQMetaObject@@XZ @ 561 NONAME ; struct QMetaObject const * QAbstractVideoSurface::metaObject(void) const
	??0QMediaService@@IAE@AAVQMediaServicePrivate@@PAVQObject@@@Z @ 562 NONAME ; QMediaService::QMediaService(class QMediaServicePrivate &, class QObject *)
	?playlist@QMediaPlaylistNavigator@@QBEPAVQMediaPlaylistProvider@@XZ @ 563 NONAME ; class QMediaPlaylistProvider * QMediaPlaylistNavigator::playlist(void) const
	?metaObject@QAudioCaptureSource@@UBEPBUQMetaObject@@XZ @ 564 NONAME ; struct QMetaObject const * QAudioCaptureSource::metaObject(void) const
	?staticMetaObject@QMetaDataWriterControl@@2UQMetaObject@@B @ 565 NONAME ; struct QMetaObject const QMetaDataWriterControl::staticMetaObject
	?getStaticMetaObject@QAbstractAudioInput@@SAABUQMetaObject@@XZ @ 566 NONAME ; struct QMetaObject const & QAbstractAudioInput::getStaticMetaObject(void)
	?d_func@QAbstractVideoBuffer@@AAEPAVQAbstractVideoBufferPrivate@@XZ @ 567 NONAME ; class QAbstractVideoBufferPrivate * QAbstractVideoBuffer::d_func(void)
	?staticMetaObject@QMediaPlaylistControl@@2UQMetaObject@@B @ 568 NONAME ; struct QMetaObject const QMediaPlaylistControl::staticMetaObject
	?qt_metacast@QVideoDeviceControl@@UAEPAXPBD@Z @ 569 NONAME ; void * QVideoDeviceControl::qt_metacast(char const *)
	?metaObject@QVideoRendererControl@@UBEPBUQMetaObject@@XZ @ 570 NONAME ; struct QMetaObject const * QVideoRendererControl::metaObject(void) const
	??1QMediaPlaylistReader@@UAE@XZ @ 571 NONAME ; QMediaPlaylistReader::~QMediaPlaylistReader(void)
	?getStaticMetaObject@QAbstractAudioOutput@@SAABUQMetaObject@@XZ @ 572 NONAME ; struct QMetaObject const & QAbstractAudioOutput::getStaticMetaObject(void)
	?qt_metacast@QAbstractVideoSurface@@UAEPAXPBD@Z @ 573 NONAME ; void * QAbstractVideoSurface::qt_metacast(char const *)
	?qt_metacall@QMetaDataWriterControl@@UAEHW4Call@QMetaObject@@HPAPAX@Z @ 574 NONAME ; int QMetaDataWriterControl::qt_metacall(enum QMetaObject::Call, int, void * *)
	??0QAbstractVideoSurface@@IAE@AAVQAbstractVideoSurfacePrivate@@PAVQObject@@@Z @ 575 NONAME ; QAbstractVideoSurface::QAbstractVideoSurface(class QAbstractVideoSurfacePrivate &, class QObject *)
	?tr@QMediaPlaylist@@SA?AVQString@@PBD0H@Z @ 576 NONAME ; class QString QMediaPlaylist::tr(char const *, char const *, int)
	??1QMediaServiceFeaturesInterface@@UAE@XZ @ 577 NONAME ; QMediaServiceFeaturesInterface::~QMediaServiceFeaturesInterface(void)
	?frequency@QAudioFormat@@QBEHXZ @ 578 NONAME ; int QAudioFormat::frequency(void) const
	?errorString@QMediaPlayer@@QBE?AVQString@@XZ @ 579 NONAME ; class QString QMediaPlayer::errorString(void) const
	?map@QImageVideoBuffer@@UAEPAEW4MapMode@QAbstractVideoBuffer@@PAH1@Z @ 580 NONAME ; unsigned char * QImageVideoBuffer::map(enum QAbstractVideoBuffer::MapMode, int *, int *)
	?setBufferSize@QAudioInput@@QAEXH@Z @ 581 NONAME ; void QAudioInput::setBufferSize(int)
	?loadFailed@QMediaPlaylist@@IAEXXZ @ 582 NONAME ; void QMediaPlaylist::loadFailed(void)
	?elapsedTime@QMediaImageViewer@@QBEHXZ @ 583 NONAME ; int QMediaImageViewer::elapsedTime(void) const
	?loaded@QMediaPlaylist@@IAEXXZ @ 584 NONAME ; void QMediaPlaylist::loaded(void)
	?mediaObject@QVideoWidget@@UBEPAVQMediaObject@@XZ @ 585 NONAME ; class QMediaObject * QVideoWidget::mediaObject(void) const
	??8QImageEncoderSettings@@QBE_NABV0@@Z @ 586 NONAME ; bool QImageEncoderSettings::operator==(class QImageEncoderSettings const &) const
	??1QMediaPlaylistNavigator@@UAE@XZ @ 587 NONAME ; QMediaPlaylistNavigator::~QMediaPlaylistNavigator(void)
	??0QAudioDeviceInfo@@QAE@ABV0@@Z @ 588 NONAME ; QAudioDeviceInfo::QAudioDeviceInfo(class QAudioDeviceInfo const &)
	?tr@QVideoEncoderControl@@SA?AVQString@@PBD0@Z @ 589 NONAME ; class QString QVideoEncoderControl::tr(char const *, char const *)
	?qt_metacast@QMediaRecorderControl@@UAEPAXPBD@Z @ 590 NONAME ; void * QMediaRecorderControl::qt_metacast(char const *)
	?tr@QAudioInput@@SA?AVQString@@PBD0@Z @ 591 NONAME ; class QString QAudioInput::tr(char const *, char const *)
	?devices@QMediaServiceProvider@@UBE?AV?$QList@VQByteArray@@@@ABVQByteArray@@@Z @ 592 NONAME ; class QList<class QByteArray> QMediaServiceProvider::devices(class QByteArray const &) const
	?staticMetaObject@QMediaRecorderControl@@2UQMetaObject@@B @ 593 NONAME ; struct QMetaObject const QMediaRecorderControl::staticMetaObject
	?qt_metacall@QMediaPlaylist@@UAEHW4Call@QMetaObject@@HPAPAX@Z @ 594 NONAME ; int QMediaPlaylist::qt_metacall(enum QMetaObject::Call, int, void * *)
	?setBrightness@QVideoWidget@@QAEXH@Z @ 595 NONAME ; void QVideoWidget::setBrightness(int)
	??4QImageEncoderSettings@@QAEAAV0@ABV0@@Z @ 596 NONAME ; class QImageEncoderSettings & QImageEncoderSettings::operator=(class QImageEncoderSettings const &)
	?qt_metacall@QVideoWidgetControl@@UAEHW4Call@QMetaObject@@HPAPAX@Z @ 597 NONAME ; int QVideoWidgetControl::qt_metacall(enum QMetaObject::Call, int, void * *)
	??_EQAudioSystemFactoryInterface@@UAE@I@Z @ 598 NONAME ; QAudioSystemFactoryInterface::~QAudioSystemFactoryInterface(unsigned int)
	?isNull@QMediaContent@@QBE_NXZ @ 599 NONAME ; bool QMediaContent::isNull(void) const
	?qt_metacall@QAbstractVideoSurface@@UAEHW4Call@QMetaObject@@HPAPAX@Z @ 600 NONAME ; int QAbstractVideoSurface::qt_metacall(enum QMetaObject::Call, int, void * *)
	??1QVideoDeviceControl@@UAE@XZ @ 601 NONAME ; QVideoDeviceControl::~QVideoDeviceControl(void)
	?isValid@QVideoSurfaceFormat@@QBE_NXZ @ 602 NONAME ; bool QVideoSurfaceFormat::isValid(void) const
	?defaultInputDevice@QAudioDeviceInfo@@SA?AV1@XZ @ 603 NONAME ; class QAudioDeviceInfo QAudioDeviceInfo::defaultInputDevice(void)
	?tr@QVideoDeviceControl@@SA?AVQString@@PBD0H@Z @ 604 NONAME ; class QString QVideoDeviceControl::tr(char const *, char const *, int)
	?pause@QMediaImageViewer@@QAEXXZ @ 605 NONAME ; void QMediaImageViewer::pause(void)
	?qt_metacast@QAudioInput@@UAEPAXPBD@Z @ 606 NONAME ; void * QAudioInput::qt_metacast(char const *)
	?trUtf8@QMediaServiceProvider@@SA?AVQString@@PBD0@Z @ 607 NONAME ; class QString QMediaServiceProvider::trUtf8(char const *, char const *)
	?tr@QMediaPlaylistSourceControl@@SA?AVQString@@PBD0@Z @ 608 NONAME ; class QString QMediaPlaylistSourceControl::tr(char const *, char const *)
	?state@QMediaPlayer@@QBE?AW4State@1@XZ @ 609 NONAME ; enum QMediaPlayer::State QMediaPlayer::state(void) const
	?tr@QAudioEncoderControl@@SA?AVQString@@PBD0@Z @ 610 NONAME ; class QString QAudioEncoderControl::tr(char const *, char const *)
	??1QAudioFormat@@QAE@XZ @ 611 NONAME ; QAudioFormat::~QAudioFormat(void)
	?bind@QMediaObject@@UAE_NPAVQObject@@@Z @ 612 NONAME ; bool QMediaObject::bind(class QObject *)
	?metaDataChanged@QMetaDataReaderControl@@IAEXXZ @ 613 NONAME ; void QMetaDataReaderControl::metaDataChanged(void)
	?playlist@QMediaPlayer@@QBEPAVQMediaPlaylist@@XZ @ 614 NONAME ; class QMediaPlaylist * QMediaPlayer::playlist(void) const
	?trUtf8@QAudioInput@@SA?AVQString@@PBD0@Z @ 615 NONAME ; class QString QAudioInput::trUtf8(char const *, char const *)
	?metaObject@QAudioEncoderControl@@UBEPBUQMetaObject@@XZ @ 616 NONAME ; struct QMetaObject const * QAudioEncoderControl::metaObject(void) const
	?getStaticMetaObject@QAudioInput@@SAABUQMetaObject@@XZ @ 617 NONAME ; struct QMetaObject const & QAudioInput::getStaticMetaObject(void)
	?previousItem@QMediaPlaylistNavigator@@QBE?AVQMediaContent@@H@Z @ 618 NONAME ; class QMediaContent QMediaPlaylistNavigator::previousItem(int) const
	??0QMediaTimeInterval@@QAE@ABV0@@Z @ 619 NONAME ; QMediaTimeInterval::QMediaTimeInterval(class QMediaTimeInterval const &)
	?tr@QAudioEndpointSelector@@SA?AVQString@@PBD0@Z @ 620 NONAME ; class QString QAudioEndpointSelector::tr(char const *, char const *)
	?qt_metacall@QGraphicsVideoItem@@UAEHW4Call@QMetaObject@@HPAPAX@Z @ 621 NONAME ; int QGraphicsVideoItem::qt_metacall(enum QMetaObject::Call, int, void * *)
	?tr@QMetaDataReaderControl@@SA?AVQString@@PBD0H@Z @ 622 NONAME ; class QString QMetaDataReaderControl::tr(char const *, char const *, int)
	?mediaChanged@QMediaPlaylistProvider@@IAEXHH@Z @ 623 NONAME ; void QMediaPlaylistProvider::mediaChanged(int, int)
	?service@QMediaObject@@UBEPAVQMediaService@@XZ @ 624 NONAME ; class QMediaService * QMediaObject::service(void) const
	?mappedBytes@QVideoFrame@@QBEHXZ @ 625 NONAME ; int QVideoFrame::mappedBytes(void) const
	?tr@QMediaPlaylistIOPlugin@@SA?AVQString@@PBD0@Z @ 626 NONAME ; class QString QMediaPlaylistIOPlugin::tr(char const *, char const *)
	?removePropertyWatch@QMediaObject@@IAEXABVQByteArray@@@Z @ 627 NONAME ; void QMediaObject::removePropertyWatch(class QByteArray const &)
	?metaObject@QMediaControl@@UBEPBUQMetaObject@@XZ @ 628 NONAME ; struct QMetaObject const * QMediaControl::metaObject(void) const
	??1QMediaStreamsControl@@UAE@XZ @ 629 NONAME ; QMediaStreamsControl::~QMediaStreamsControl(void)
	?codec@QImageEncoderSettings@@QBE?AVQString@@XZ @ 630 NONAME ; class QString QImageEncoderSettings::codec(void) const
	?frequencyStep@QRadioTuner@@QBEHW4Band@1@@Z @ 631 NONAME ; int QRadioTuner::frequencyStep(enum QRadioTuner::Band) const
	??1QVideoRendererControl@@UAE@XZ @ 632 NONAME ; QVideoRendererControl::~QVideoRendererControl(void)
	?setNotifyInterval@QMediaObject@@QAEXH@Z @ 633 NONAME ; void QMediaObject::setNotifyInterval(int)
	?metaDataChanged@QMetaDataWriterControl@@IAEXXZ @ 634 NONAME ; void QMetaDataWriterControl::metaDataChanged(void)
	??_EQMetaDataReaderControl@@UAE@I@Z @ 635 NONAME ; QMetaDataReaderControl::~QMetaDataReaderControl(unsigned int)
	?surfaceFormatChanged@QAbstractVideoSurface@@IAEXABVQVideoSurfaceFormat@@@Z @ 636 NONAME ; void QAbstractVideoSurface::surfaceFormatChanged(class QVideoSurfaceFormat const &)
	?clear@QMediaTimeRange@@QAEXXZ @ 637 NONAME ; void QMediaTimeRange::clear(void)
	?setOffset@QGraphicsVideoItem@@QAEXABVQPointF@@@Z @ 638 NONAME ; void QGraphicsVideoItem::setOffset(class QPointF const &)
	??_EQAudioEncoderControl@@UAE@I@Z @ 639 NONAME ; QAudioEncoderControl::~QAudioEncoderControl(unsigned int)
	?qt_metacast@QLocalMediaPlaylistProvider@@UAEPAXPBD@Z @ 640 NONAME ; void * QLocalMediaPlaylistProvider::qt_metacast(char const *)
	?resizeEvent@QVideoWidget@@MAEXPAVQResizeEvent@@@Z @ 641 NONAME ; void QVideoWidget::resizeEvent(class QResizeEvent *)
	?isReadOnly@QLocalMediaPlaylistProvider@@UBE_NXZ @ 642 NONAME ; bool QLocalMediaPlaylistProvider::isReadOnly(void) const
	?d_func@QMediaPlayer@@AAEPAVQMediaPlayerPrivate@@XZ @ 643 NONAME ; class QMediaPlayerPrivate * QMediaPlayer::d_func(void)
	?elapsedTimeChanged@QMediaImageViewer@@IAEXH@Z @ 644 NONAME ; void QMediaImageViewer::elapsedTimeChanged(int)
	?isMapped@QVideoFrame@@QBE_NXZ @ 645 NONAME ; bool QVideoFrame::isMapped(void) const
	?tr@QAudioOutput@@SA?AVQString@@PBD0@Z @ 646 NONAME ; class QString QAudioOutput::tr(char const *, char const *)
	?metaDataWritableChanged@QMediaRecorder@@IAEX_N@Z @ 647 NONAME ; void QMediaRecorder::metaDataWritableChanged(bool)
	?loopsChanged@QSoundEffect@@IAEXXZ @ 648 NONAME ABSENT ; void QSoundEffect::loopsChanged(void)
	?trUtf8@QAbstractAudioInput@@SA?AVQString@@PBD0H@Z @ 649 NONAME ; class QString QAbstractAudioInput::trUtf8(char const *, char const *, int)
	?setDataSize@QMediaResource@@QAEX_J@Z @ 650 NONAME ; void QMediaResource::setDataSize(long long)
	?trUtf8@QAudioEndpointSelector@@SA?AVQString@@PBD0H@Z @ 651 NONAME ; class QString QAudioEndpointSelector::trUtf8(char const *, char const *, int)
	?setFieldType@QVideoFrame@@QAEXW4FieldType@1@@Z @ 652 NONAME ; void QVideoFrame::setFieldType(enum QVideoFrame::FieldType)
	?metaData@QMediaRecorder@@QBE?AVQVariant@@W4MetaData@QtMultimediaKit@@@Z @ 653 NONAME ; class QVariant QMediaRecorder::metaData(enum QtMultimediaKit::MetaData) const
	?audioDescription@QAudioCaptureSource@@QBE?AVQString@@ABV2@@Z @ 654 NONAME ; class QString QAudioCaptureSource::audioDescription(class QString const &) const
	?media@QLocalMediaPlaylistProvider@@UBE?AVQMediaContent@@H@Z @ 655 NONAME ; class QMediaContent QLocalMediaPlaylistProvider::media(int) const
	??0QVideoWidgetControl@@IAE@PAVQObject@@@Z @ 656 NONAME ; QVideoWidgetControl::QVideoWidgetControl(class QObject *)
	??1QImageEncoderSettings@@QAE@XZ @ 657 NONAME ; QImageEncoderSettings::~QImageEncoderSettings(void)
	?deviceName@QAudioDeviceInfo@@QBE?AVQString@@XZ @ 658 NONAME ; class QString QAudioDeviceInfo::deviceName(void) const
	?isAvailable@QAudioCaptureSource@@UBE_NXZ @ 659 NONAME ; bool QAudioCaptureSource::isAvailable(void) const
	?getStaticMetaObject@QAudioEndpointSelector@@SAABUQMetaObject@@XZ @ 660 NONAME ; struct QMetaObject const & QAudioEndpointSelector::getStaticMetaObject(void)
	??0QMediaObject@@IAE@PAVQObject@@PAVQMediaService@@@Z @ 661 NONAME ; QMediaObject::QMediaObject(class QObject *, class QMediaService *)
	?addTimeRange@QMediaTimeRange@@QAEXABV1@@Z @ 662 NONAME ; void QMediaTimeRange::addTimeRange(class QMediaTimeRange const &)
	?timerEvent@QMediaImageViewer@@MAEXPAVQTimerEvent@@@Z @ 663 NONAME ; void QMediaImageViewer::timerEvent(class QTimerEvent *)
	?getStaticMetaObject@QMediaPlaylistIOPlugin@@SAABUQMetaObject@@XZ @ 664 NONAME ; struct QMetaObject const & QMediaPlaylistIOPlugin::getStaticMetaObject(void)
	?metaObject@QLocalMediaPlaylistProvider@@UBEPBUQMetaObject@@XZ @ 665 NONAME ; struct QMetaObject const * QLocalMediaPlaylistProvider::metaObject(void) const
	?currentIndexChanged@QMediaPlaylist@@IAEXH@Z @ 666 NONAME ; void QMediaPlaylist::currentIndexChanged(int)
	?videoCodecDescription@QMediaRecorder@@QBE?AVQString@@ABV2@@Z @ 667 NONAME ; class QString QMediaRecorder::videoCodecDescription(class QString const &) const
	?trUtf8@QMediaImageViewer@@SA?AVQString@@PBD0H@Z @ 668 NONAME ; class QString QMediaImageViewer::trUtf8(char const *, char const *, int)
	?stop@QMediaImageViewer@@QAEXXZ @ 669 NONAME ; void QMediaImageViewer::stop(void)
	?metaObject@QMediaPlaylistSourceControl@@UBEPBUQMetaObject@@XZ @ 670 NONAME ; struct QMetaObject const * QMediaPlaylistSourceControl::metaObject(void) const
	?qt_metacall@QAudioInput@@UAEHW4Call@QMetaObject@@HPAPAX@Z @ 671 NONAME ; int QAudioInput::qt_metacall(enum QMetaObject::Call, int, void * *)
	?availableEndpointsChanged@QAudioEndpointSelector@@IAEXXZ @ 672 NONAME ; void QAudioEndpointSelector::availableEndpointsChanged(void)
	?isNull@QVideoEncoderSettings@@QBE_NXZ @ 673 NONAME ; bool QVideoEncoderSettings::isNull(void) const
	?qt_metacast@QMediaPlayerControl@@UAEPAXPBD@Z @ 674 NONAME ; void * QMediaPlayerControl::qt_metacast(char const *)
	?setMediaObject@QMediaPlaylist@@MAE_NPAVQMediaObject@@@Z @ 675 NONAME ; bool QMediaPlaylist::setMediaObject(class QMediaObject *)
	?supportedMimeTypes@QMediaPlayer@@SA?AVQStringList@@V?$QFlags@W4Flag@QMediaPlayer@@@@@Z @ 676 NONAME ; class QStringList QMediaPlayer::supportedMimeTypes(class QFlags<enum QMediaPlayer::Flag>)
	?source@QSoundEffect@@QBE?AVQUrl@@XZ @ 677 NONAME ; class QUrl QSoundEffect::source(void) const
	?addMedia@QMediaPlaylist@@QAE_NABVQMediaContent@@@Z @ 678 NONAME ; bool QMediaPlaylist::addMedia(class QMediaContent const &)
	?metaObject@QMediaPlaylistNavigator@@UBEPBUQMetaObject@@XZ @ 679 NONAME ; struct QMetaObject const * QMediaPlaylistNavigator::metaObject(void) const
	?size@QVideoFrame@@QBE?AVQSize@@XZ @ 680 NONAME ; class QSize QVideoFrame::size(void) const
	?tr@QMediaPlayer@@SA?AVQString@@PBD0H@Z @ 681 NONAME ; class QString QMediaPlayer::tr(char const *, char const *, int)
	?d_func@QAbstractVideoSurface@@AAEPAVQAbstractVideoSurfacePrivate@@XZ @ 682 NONAME ; class QAbstractVideoSurfacePrivate * QAbstractVideoSurface::d_func(void)
	?dataSize@QMediaResource@@QBE_JXZ @ 683 NONAME ; long long QMediaResource::dataSize(void) const
	?staticMetaObject@QRadioTunerControl@@2UQMetaObject@@B @ 684 NONAME ; struct QMetaObject const QRadioTunerControl::staticMetaObject
	?tr@QMediaPlaylistNavigator@@SA?AVQString@@PBD0@Z @ 685 NONAME ; class QString QMediaPlaylistNavigator::tr(char const *, char const *)
	?tr@QMediaService@@SA?AVQString@@PBD0H@Z @ 686 NONAME ; class QString QMediaService::tr(char const *, char const *, int)
	?resolution@QVideoEncoderSettings@@QBE?AVQSize@@XZ @ 687 NONAME ; class QSize QVideoEncoderSettings::resolution(void) const
	?setContrast@QVideoWidget@@QAEXH@Z @ 688 NONAME ; void QVideoWidget::setContrast(int)
	??1QMediaServiceSupportedFormatsInterface@@UAE@XZ @ 689 NONAME ; QMediaServiceSupportedFormatsInterface::~QMediaServiceSupportedFormatsInterface(void)
	?activeStreamsChanged@QMediaStreamsControl@@IAEXXZ @ 690 NONAME ; void QMediaStreamsControl::activeStreamsChanged(void)
	?aspectRatioMode@QVideoWidget@@QBE?AW4AspectRatioMode@Qt@@XZ @ 691 NONAME ; enum Qt::AspectRatioMode QVideoWidget::aspectRatioMode(void) const
	??1QMediaRecorder@@UAE@XZ @ 692 NONAME ; QMediaRecorder::~QMediaRecorder(void)
	?setSampleType@QAudioFormat@@QAEXW4SampleType@1@@Z @ 693 NONAME ; void QAudioFormat::setSampleType(enum QAudioFormat::SampleType)
	?next@QMediaPlaylistNavigator@@QAEXXZ @ 694 NONAME ; void QMediaPlaylistNavigator::next(void)
	?setMedia@QMediaPlayer@@QAEXABVQMediaContent@@PAVQIODevice@@@Z @ 695 NONAME ; void QMediaPlayer::setMedia(class QMediaContent const &, class QIODevice *)
	??_EQMediaPlaylistControl@@UAE@I@Z @ 696 NONAME ; QMediaPlaylistControl::~QMediaPlaylistControl(unsigned int)
	??1QMetaDataReaderControl@@UAE@XZ @ 697 NONAME ; QMetaDataReaderControl::~QMetaDataReaderControl(void)
	?qt_metacall@QVideoEncoderControl@@UAEHW4Call@QMetaObject@@HPAPAX@Z @ 698 NONAME ; int QVideoEncoderControl::qt_metacall(enum QMetaObject::Call, int, void * *)
	?hasSupport@QMediaServiceProvider@@UBE?AW4SupportEstimate@QtMultimediaKit@@ABVQByteArray@@ABVQString@@ABVQStringList@@H@Z @ 699 NONAME ; enum QtMultimediaKit::SupportEstimate QMediaServiceProvider::hasSupport(class QByteArray const &, class QString const &, class QStringList const &, int) const
	??_EQAudioOutput@@UAE@I@Z @ 700 NONAME ; QAudioOutput::~QAudioOutput(unsigned int)
	?mediaInserted@QMediaPlaylist@@IAEXHH@Z @ 701 NONAME ; void QMediaPlaylist::mediaInserted(int, int)
	?currentIndex@QMediaPlaylistNavigator@@QBEHXZ @ 702 NONAME ; int QMediaPlaylistNavigator::currentIndex(void) const
	?volumeChanged@QSoundEffect@@IAEXXZ @ 703 NONAME ; void QSoundEffect::volumeChanged(void)
	?duration@QMediaRecorder@@QBE_JXZ @ 704 NONAME ; long long QMediaRecorder::duration(void) const
	??0QMediaContent@@QAE@XZ @ 705 NONAME ; QMediaContent::QMediaContent(void)
	?mapMode@QMemoryVideoBuffer@@UBE?AW4MapMode@QAbstractVideoBuffer@@XZ @ 706 NONAME ; enum QAbstractVideoBuffer::MapMode QMemoryVideoBuffer::mapMode(void) const
	?setProperty@QVideoSurfaceFormat@@QAEXPBDABVQVariant@@@Z @ 707 NONAME ; void QVideoSurfaceFormat::setProperty(char const *, class QVariant const &)
	?metaObject@QMediaPlayer@@UBEPBUQMetaObject@@XZ @ 708 NONAME ; struct QMetaObject const * QMediaPlayer::metaObject(void) const
	?qt_metacall@QAudioOutput@@UAEHW4Call@QMetaObject@@HPAPAX@Z @ 709 NONAME ; int QAudioOutput::qt_metacall(enum QMetaObject::Call, int, void * *)
	?fieldType@QVideoFrame@@QBE?AW4FieldType@1@XZ @ 710 NONAME ; enum QVideoFrame::FieldType QVideoFrame::fieldType(void) const
	?language@QMediaResource@@QBE?AVQString@@XZ @ 711 NONAME ; class QString QMediaResource::language(void) const
	?trUtf8@QLocalMediaPlaylistProvider@@SA?AVQString@@PBD0@Z @ 712 NONAME ; class QString QLocalMediaPlaylistProvider::trUtf8(char const *, char const *)
	?isMetaDataAvailable@QMediaRecorder@@QBE_NXZ @ 713 NONAME ; bool QMediaRecorder::isMetaDataAvailable(void) const
	??1QGraphicsVideoItem@@UAE@XZ @ 714 NONAME ; QGraphicsVideoItem::~QGraphicsVideoItem(void)
	?setByteOrder@QAudioFormat@@QAEXW4Endian@1@@Z @ 715 NONAME ; void QAudioFormat::setByteOrder(enum QAudioFormat::Endian)
	?tr@QVideoDeviceControl@@SA?AVQString@@PBD0@Z @ 716 NONAME ; class QString QVideoDeviceControl::tr(char const *, char const *)
	??0QVideoDeviceControl@@IAE@PAVQObject@@@Z @ 717 NONAME ; QVideoDeviceControl::QVideoDeviceControl(class QObject *)
	?frequency@QRadioTuner@@QBEHXZ @ 718 NONAME ; int QRadioTuner::frequency(void) const
	?qt_metacast@QAbstractAudioDeviceInfo@@UAEPAXPBD@Z @ 719 NONAME ; void * QAbstractAudioDeviceInfo::qt_metacast(char const *)
	?trUtf8@QMediaContainerControl@@SA?AVQString@@PBD0@Z @ 720 NONAME ; class QString QMediaContainerControl::trUtf8(char const *, char const *)
	?tr@QMediaPlaylistProvider@@SA?AVQString@@PBD0@Z @ 721 NONAME ; class QString QMediaPlaylistProvider::tr(char const *, char const *)
	?metaObject@QMetaDataWriterControl@@UBEPBUQMetaObject@@XZ @ 722 NONAME ; struct QMetaObject const * QMetaDataWriterControl::metaObject(void) const
	?metaObject@QVideoDeviceControl@@UBEPBUQMetaObject@@XZ @ 723 NONAME ; struct QMetaObject const * QVideoDeviceControl::metaObject(void) const
	?removeMedia@QMediaPlaylist@@QAE_NH@Z @ 724 NONAME ; bool QMediaPlaylist::removeMedia(int)
	??1QMetaDataWriterControl@@UAE@XZ @ 725 NONAME ; QMetaDataWriterControl::~QMetaDataWriterControl(void)
	?trUtf8@QImageEncoderControl@@SA?AVQString@@PBD0@Z @ 726 NONAME ; class QString QImageEncoderControl::trUtf8(char const *, char const *)
	?d_func@QMediaObject@@AAEPAVQMediaObjectPrivate@@XZ @ 727 NONAME ; class QMediaObjectPrivate * QMediaObject::d_func(void)
	?getStaticMetaObject@QVideoWindowControl@@SAABUQMetaObject@@XZ @ 728 NONAME ; struct QMetaObject const & QVideoWindowControl::getStaticMetaObject(void)
	??0QAudioEndpointSelector@@IAE@PAVQObject@@@Z @ 729 NONAME ; QAudioEndpointSelector::QAudioEndpointSelector(class QObject *)
	?mediaStatus@QMediaImageViewer@@QBE?AW4MediaStatus@1@XZ @ 730 NONAME ; enum QMediaImageViewer::MediaStatus QMediaImageViewer::mediaStatus(void) const
	?tr@QVideoWidgetControl@@SA?AVQString@@PBD0@Z @ 731 NONAME ; class QString QVideoWidgetControl::tr(char const *, char const *)
	?trUtf8@QMediaRecorderControl@@SA?AVQString@@PBD0@Z @ 732 NONAME ; class QString QMediaRecorderControl::trUtf8(char const *, char const *)
	?getStaticMetaObject@QAudioOutput@@SAABUQMetaObject@@XZ @ 733 NONAME ; struct QMetaObject const & QAudioOutput::getStaticMetaObject(void)
	?qt_metacall@QMediaPlaylistNavigator@@UAEHW4Call@QMetaObject@@HPAPAX@Z @ 734 NONAME ; int QMediaPlaylistNavigator::qt_metacall(enum QMetaObject::Call, int, void * *)
	?metaObject@QMediaPlaylistControl@@UBEPBUQMetaObject@@XZ @ 735 NONAME ; struct QMetaObject const * QMediaPlaylistControl::metaObject(void) const
	?normalized@QMediaTimeInterval@@QBE?AV1@XZ @ 736 NONAME ; class QMediaTimeInterval QMediaTimeInterval::normalized(void) const
	?durationChanged@QMediaPlayerControl@@IAEX_J@Z @ 737 NONAME ; void QMediaPlayerControl::durationChanged(long long)
	?d_func@QImageVideoBuffer@@AAEPAVQImageVideoBufferPrivate@@XZ @ 738 NONAME ; class QImageVideoBufferPrivate * QImageVideoBuffer::d_func(void)
	?stateChanged@QAbstractAudioOutput@@IAEXW4State@QAudio@@@Z @ 739 NONAME ; void QAbstractAudioOutput::stateChanged(enum QAudio::State)
	?trUtf8@QMediaContainerControl@@SA?AVQString@@PBD0H@Z @ 740 NONAME ; class QString QMediaContainerControl::trUtf8(char const *, char const *, int)
	?byteOrder@QAudioFormat@@QBE?AW4Endian@1@XZ @ 741 NONAME ; enum QAudioFormat::Endian QAudioFormat::byteOrder(void) const
	?qt_metacast@QAbstractAudioInput@@UAEPAXPBD@Z @ 742 NONAME ; void * QAbstractAudioInput::qt_metacast(char const *)
	?mediaChanged@QMediaImageViewer@@IAEXABVQMediaContent@@@Z @ 743 NONAME ; void QMediaImageViewer::mediaChanged(class QMediaContent const &)
	?errorString@QRadioTuner@@QBE?AVQString@@XZ @ 744 NONAME ; class QString QRadioTuner::errorString(void) const
	?d_func@QMediaPlaylistNavigator@@ABEPBVQMediaPlaylistNavigatorPrivate@@XZ @ 745 NONAME ; class QMediaPlaylistNavigatorPrivate const * QMediaPlaylistNavigator::d_func(void) const
	?error@QAbstractVideoSurface@@QBE?AW4Error@1@XZ @ 746 NONAME ; enum QAbstractVideoSurface::Error QAbstractVideoSurface::error(void) const
	?contrastChanged@QVideoWidgetControl@@IAEXH@Z @ 747 NONAME ; void QVideoWidgetControl::contrastChanged(int)
	?d_func@QAbstractVideoBuffer@@ABEPBVQAbstractVideoBufferPrivate@@XZ @ 748 NONAME ; class QAbstractVideoBufferPrivate const * QAbstractVideoBuffer::d_func(void) const
	?setScanLineDirection@QVideoSurfaceFormat@@QAEXW4Direction@1@@Z @ 749 NONAME ; void QVideoSurfaceFormat::setScanLineDirection(enum QVideoSurfaceFormat::Direction)
	??0QVideoRendererControl@@IAE@PAVQObject@@@Z @ 750 NONAME ; QVideoRendererControl::QVideoRendererControl(class QObject *)
	?trUtf8@QMediaObject@@SA?AVQString@@PBD0@Z @ 751 NONAME ; class QString QMediaObject::trUtf8(char const *, char const *)
	?tr@QMediaImageViewer@@SA?AVQString@@PBD0H@Z @ 752 NONAME ; class QString QMediaImageViewer::tr(char const *, char const *, int)
	??1QAudioDeviceInfo@@QAE@XZ @ 753 NONAME ; QAudioDeviceInfo::~QAudioDeviceInfo(void)
	?videoSettings@QMediaRecorder@@QBE?AVQVideoEncoderSettings@@XZ @ 754 NONAME ; class QVideoEncoderSettings QMediaRecorder::videoSettings(void) const
	?nearestFormat@QAudioDeviceInfo@@QBE?AVQAudioFormat@@ABV2@@Z @ 755 NONAME ; class QAudioFormat QAudioDeviceInfo::nearestFormat(class QAudioFormat const &) const
	?playbackModeChanged@QMediaPlaylist@@IAEXW4PlaybackMode@1@@Z @ 756 NONAME ; void QMediaPlaylist::playbackModeChanged(enum QMediaPlaylist::PlaybackMode)
	?setMediaObject@QVideoWidget@@MAE_NPAVQMediaObject@@@Z @ 757 NONAME ; bool QVideoWidget::setMediaObject(class QMediaObject *)
	?isFormatSupported@QAudioDeviceInfo@@QBE_NABVQAudioFormat@@@Z @ 758 NONAME ; bool QAudioDeviceInfo::isFormatSupported(class QAudioFormat const &) const
	??1QMediaPlaylistProvider@@UAE@XZ @ 759 NONAME ; QMediaPlaylistProvider::~QMediaPlaylistProvider(void)
	?qt_metacall@QMediaImageViewer@@UAEHW4Call@QMetaObject@@HPAPAX@Z @ 760 NONAME ; int QMediaImageViewer::qt_metacall(enum QMetaObject::Call, int, void * *)
	?tr@QMediaPlaylistProvider@@SA?AVQString@@PBD0H@Z @ 761 NONAME ; class QString QMediaPlaylistProvider::tr(char const *, char const *, int)
	?tr@QMediaPlaylistNavigator@@SA?AVQString@@PBD0H@Z @ 762 NONAME ; class QString QMediaPlaylistNavigator::tr(char const *, char const *, int)
	?isNull@QAudioDeviceInfo@@QBE_NXZ @ 763 NONAME ; bool QAudioDeviceInfo::isNull(void) const
	?supportedByteOrders@QAudioDeviceInfo@@QBE?AV?$QList@W4Endian@QAudioFormat@@@@XZ @ 764 NONAME ; class QList<enum QAudioFormat::Endian> QAudioDeviceInfo::supportedByteOrders(void) const
	?showEvent@QVideoWidget@@MAEXPAVQShowEvent@@@Z @ 765 NONAME ; void QVideoWidget::showEvent(class QShowEvent *)
	?codecs@QMediaServiceProviderHint@@QBE?AVQStringList@@XZ @ 766 NONAME ; class QStringList QMediaServiceProviderHint::codecs(void) const
	?error@QMediaPlayer@@QBE?AW4Error@1@XZ @ 767 NONAME ; enum QMediaPlayer::Error QMediaPlayer::error(void) const
	?insertMedia@QLocalMediaPlaylistProvider@@UAE_NHABV?$QList@VQMediaContent@@@@@Z @ 768 NONAME ; bool QLocalMediaPlaylistProvider::insertMedia(int, class QList<class QMediaContent> const &)
	?mediaStream@QMediaPlayer@@QBEPBVQIODevice@@XZ @ 769 NONAME ; class QIODevice const * QMediaPlayer::mediaStream(void) const
	??0QMediaPlaylistProvider@@IAE@AAVQMediaPlaylistProviderPrivate@@PAVQObject@@@Z @ 770 NONAME ; QMediaPlaylistProvider::QMediaPlaylistProvider(class QMediaPlaylistProviderPrivate &, class QObject *)
	?audioInputs@QAudioCaptureSource@@QBE?AV?$QList@VQString@@@@XZ @ 771 NONAME ; class QList<class QString> QAudioCaptureSource::audioInputs(void) const
	?setResolution@QImageEncoderSettings@@QAEXABVQSize@@@Z @ 772 NONAME ; void QImageEncoderSettings::setResolution(class QSize const &)
	??0QImageEncoderSettings@@QAE@ABV0@@Z @ 773 NONAME ; QImageEncoderSettings::QImageEncoderSettings(class QImageEncoderSettings const &)
	?state@QMediaImageViewer@@QBE?AW4State@1@XZ @ 774 NONAME ; enum QMediaImageViewer::State QMediaImageViewer::state(void) const
	?encodingMode@QVideoEncoderSettings@@QBE?AW4EncodingMode@QtMultimediaKit@@XZ @ 775 NONAME ; enum QtMultimediaKit::EncodingMode QVideoEncoderSettings::encodingMode(void) const
	?errorChanged@QAbstractAudioOutput@@IAEXW4Error@QAudio@@@Z @ 776 NONAME ; void QAbstractAudioOutput::errorChanged(enum QAudio::Error)
	?nearestFormat@QAbstractVideoSurface@@UBE?AVQVideoSurfaceFormat@@ABV2@@Z @ 777 NONAME ; class QVideoSurfaceFormat QAbstractVideoSurface::nearestFormat(class QVideoSurfaceFormat const &) const
	?setPixelAspectRatio@QVideoSurfaceFormat@@QAEXHH@Z @ 778 NONAME ; void QVideoSurfaceFormat::setPixelAspectRatio(int, int)
	?getStaticMetaObject@QAbstractAudioDeviceInfo@@SAABUQMetaObject@@XZ @ 779 NONAME ; struct QMetaObject const & QAbstractAudioDeviceInfo::getStaticMetaObject(void)
	?clear@QMediaPlaylist@@QAE_NXZ @ 780 NONAME ; bool QMediaPlaylist::clear(void)
	?surroundingItemsChanged@QMediaPlaylistNavigator@@IAEXXZ @ 781 NONAME ; void QMediaPlaylistNavigator::surroundingItemsChanged(void)
	?availableDevices@QAudioDeviceInfo@@SA?AV?$QList@VQAudioDeviceInfo@@@@W4Mode@QAudio@@@Z @ 782 NONAME ; class QList<class QAudioDeviceInfo> QAudioDeviceInfo::availableDevices(enum QAudio::Mode)
	?d_func@QMediaService@@ABEPBVQMediaServicePrivate@@XZ @ 783 NONAME ; class QMediaServicePrivate const * QMediaService::d_func(void) const
	?getStaticMetaObject@QMediaPlaylistProvider@@SAABUQMetaObject@@XZ @ 784 NONAME ; struct QMetaObject const & QMediaPlaylistProvider::getStaticMetaObject(void)
	?availablePlaybackRangesChanged@QMediaPlayerControl@@IAEXABVQMediaTimeRange@@@Z @ 785 NONAME ; void QMediaPlayerControl::availablePlaybackRangesChanged(class QMediaTimeRange const &)
	??1QImageVideoBuffer@@UAE@XZ @ 786 NONAME ; QImageVideoBuffer::~QImageVideoBuffer(void)
	?notifyInterval@QAudioOutput@@QBEHXZ @ 787 NONAME ; int QAudioOutput::notifyInterval(void) const
	??1QAbstractAudioDeviceInfo@@UAE@XZ @ 788 NONAME ; QAbstractAudioDeviceInfo::~QAbstractAudioDeviceInfo(void)
	??1QVideoEncoderSettings@@QAE@XZ @ 789 NONAME ; QVideoEncoderSettings::~QVideoEncoderSettings(void)
	?clear@QLocalMediaPlaylistProvider@@UAE_NXZ @ 790 NONAME ; bool QLocalMediaPlaylistProvider::clear(void)
	?setSampleRate@QMediaResource@@QAEXH@Z @ 791 NONAME ; void QMediaResource::setSampleRate(int)
	?setBand@QRadioTuner@@QAEXW4Band@1@@Z @ 792 NONAME ; void QRadioTuner::setBand(enum QRadioTuner::Band)
	?mediaChanged@QMediaPlayerControl@@IAEXABVQMediaContent@@@Z @ 793 NONAME ; void QMediaPlayerControl::mediaChanged(class QMediaContent const &)
	?removeMedia@QMediaPlaylist@@QAE_NHH@Z @ 794 NONAME ; bool QMediaPlaylist::removeMedia(int, int)
	?setMetaData@QMediaRecorder@@QAEXW4MetaData@QtMultimediaKit@@ABVQVariant@@@Z @ 795 NONAME ; void QMediaRecorder::setMetaData(enum QtMultimediaKit::MetaData, class QVariant const &)
	?d_func@QGraphicsVideoItem@@ABEPBVQGraphicsVideoItemPrivate@@XZ @ 796 NONAME ; class QGraphicsVideoItemPrivate const * QGraphicsVideoItem::d_func(void) const
	?setPlaylist@QMediaImageViewer@@QAEXPAVQMediaPlaylist@@@Z @ 797 NONAME ; void QMediaImageViewer::setPlaylist(class QMediaPlaylist *)
	?itemChange@QGraphicsVideoItem@@MAE?AVQVariant@@W4GraphicsItemChange@QGraphicsItem@@ABV2@@Z @ 798 NONAME ; class QVariant QGraphicsVideoItem::itemChange(enum QGraphicsItem::GraphicsItemChange, class QVariant const &)
	?stateChanged@QRadioTuner@@IAEXW4State@1@@Z @ 799 NONAME ; void QRadioTuner::stateChanged(enum QRadioTuner::State)
	?getStaticMetaObject@QMediaControl@@SAABUQMetaObject@@XZ @ 800 NONAME ; struct QMetaObject const & QMediaControl::getStaticMetaObject(void)
	?qt_metacall@QMediaService@@UAEHW4Call@QMetaObject@@HPAPAX@Z @ 801 NONAME ; int QMediaService::qt_metacall(enum QMetaObject::Call, int, void * *)
	?bitRate@QAudioEncoderSettings@@QBEHXZ @ 802 NONAME ; int QAudioEncoderSettings::bitRate(void) const
	?mediaObject@QMediaRecorder@@UBEPAVQMediaObject@@XZ @ 803 NONAME ; class QMediaObject * QMediaRecorder::mediaObject(void) const
	?trUtf8@QMediaStreamsControl@@SA?AVQString@@PBD0@Z @ 804 NONAME ; class QString QMediaStreamsControl::trUtf8(char const *, char const *)
	??0QMediaResource@@QAE@ABV0@@Z @ 805 NONAME ; QMediaResource::QMediaResource(class QMediaResource const &)
	?d_func@QMediaPlaylistNavigator@@AAEPAVQMediaPlaylistNavigatorPrivate@@XZ @ 806 NONAME ; class QMediaPlaylistNavigatorPrivate * QMediaPlaylistNavigator::d_func(void)
	?save@QMediaPlaylistProvider@@UAE_NABVQUrl@@PBD@Z @ 807 NONAME ; bool QMediaPlaylistProvider::save(class QUrl const &, char const *)
	?frequencyRange@QRadioTuner@@QBE?AU?$QPair@HH@@W4Band@1@@Z @ 808 NONAME ; struct QPair<int, int> QRadioTuner::frequencyRange(enum QRadioTuner::Band) const
	?setResolution@QMediaResource@@QAEXABVQSize@@@Z @ 809 NONAME ; void QMediaResource::setResolution(class QSize const &)
	??1QAudioCaptureSource@@UAE@XZ @ 810 NONAME ; QAudioCaptureSource::~QAudioCaptureSource(void)
	?positionChanged@QMediaPlayer@@IAEX_J@Z @ 811 NONAME ; void QMediaPlayer::positionChanged(long long)
	?qt_metacall@QAbstractAudioOutput@@UAEHW4Call@QMetaObject@@HPAPAX@Z @ 812 NONAME ; int QAbstractAudioOutput::qt_metacall(enum QMetaObject::Call, int, void * *)
	??0QAudioOutput@@QAE@ABVQAudioDeviceInfo@@ABVQAudioFormat@@PAVQObject@@@Z @ 813 NONAME ; QAudioOutput::QAudioOutput(class QAudioDeviceInfo const &, class QAudioFormat const &, class QObject *)
	?staticMetaObject@QMediaRecorder@@2UQMetaObject@@B @ 814 NONAME ; struct QMetaObject const QMediaRecorder::staticMetaObject
	?setMuted@QRadioTuner@@QAEX_N@Z @ 815 NONAME ; void QRadioTuner::setMuted(bool)
	?getStaticMetaObject@QMediaRecorder@@SAABUQMetaObject@@XZ @ 816 NONAME ; struct QMetaObject const & QMediaRecorder::getStaticMetaObject(void)
	?streamsChanged@QMediaStreamsControl@@IAEXXZ @ 817 NONAME ; void QMediaStreamsControl::streamsChanged(void)
	??0QMediaServiceProviderHint@@QAE@V?$QFlags@W4Feature@QMediaServiceProviderHint@@@@@Z @ 818 NONAME ; QMediaServiceProviderHint::QMediaServiceProviderHint(class QFlags<enum QMediaServiceProviderHint::Feature>)
	?mediaStatusChanged@QMediaPlayer@@IAEXW4MediaStatus@1@@Z @ 819 NONAME ; void QMediaPlayer::mediaStatusChanged(enum QMediaPlayer::MediaStatus)
	?trUtf8@QMediaPlaylistIOPlugin@@SA?AVQString@@PBD0H@Z @ 820 NONAME ; class QString QMediaPlaylistIOPlugin::trUtf8(char const *, char const *, int)
	?tr@QVideoWidget@@SA?AVQString@@PBD0H@Z @ 821 NONAME ; class QString QVideoWidget::tr(char const *, char const *, int)
	?nextIndex@QMediaPlaylist@@QBEHH@Z @ 822 NONAME ; int QMediaPlaylist::nextIndex(int) const
	??0QMediaService@@IAE@PAVQObject@@@Z @ 823 NONAME ; QMediaService::QMediaService(class QObject *)
	?qt_metacall@QMediaPlayer@@UAEHW4Call@QMetaObject@@HPAPAX@Z @ 824 NONAME ; int QMediaPlayer::qt_metacall(enum QMetaObject::Call, int, void * *)
	??4QAudioEncoderSettings@@QAEAAV0@ABV0@@Z @ 825 NONAME ; class QAudioEncoderSettings & QAudioEncoderSettings::operator=(class QAudioEncoderSettings const &)
	?staticMetaObject@QAbstractVideoSurface@@2UQMetaObject@@B @ 826 NONAME ; struct QMetaObject const QAbstractVideoSurface::staticMetaObject
	?trUtf8@QAbstractVideoSurface@@SA?AVQString@@PBD0@Z @ 827 NONAME ; class QString QAbstractVideoSurface::trUtf8(char const *, char const *)
	??_EQMediaStreamsControl@@UAE@I@Z @ 828 NONAME ; QMediaStreamsControl::~QMediaStreamsControl(unsigned int)
	?playbackModeChanged@QMediaPlaylistNavigator@@IAEXW4PlaybackMode@QMediaPlaylist@@@Z @ 829 NONAME ; void QMediaPlaylistNavigator::playbackModeChanged(enum QMediaPlaylist::PlaybackMode)
	?staticMetaObject@QAudioCaptureSource@@2UQMetaObject@@B @ 830 NONAME ; struct QMetaObject const QAudioCaptureSource::staticMetaObject
	?staticMetaObject@QMediaContainerControl@@2UQMetaObject@@B @ 831 NONAME ; struct QMetaObject const QMediaContainerControl::staticMetaObject
	?trUtf8@QAbstractAudioOutput@@SA?AVQString@@PBD0@Z @ 832 NONAME ; class QString QAbstractAudioOutput::trUtf8(char const *, char const *)
	?sourceChanged@QSoundEffect@@IAEXXZ @ 833 NONAME ; void QSoundEffect::sourceChanged(void)
	??9@YA_NABVQMediaTimeRange@@0@Z @ 834 NONAME ; bool operator!=(class QMediaTimeRange const &, class QMediaTimeRange const &)
	?availableAudioInputsChanged@QAudioCaptureSource@@IAEXXZ @ 835 NONAME ; void QAudioCaptureSource::availableAudioInputsChanged(void)
	??_EQAbstractAudioDeviceInfo@@UAE@I@Z @ 836 NONAME ; QAbstractAudioDeviceInfo::~QAbstractAudioDeviceInfo(unsigned int)
	?load@QMediaPlaylist@@QAEXPAVQIODevice@@PBD@Z @ 837 NONAME ; void QMediaPlaylist::load(class QIODevice *, char const *)
	?currentMediaChanged@QMediaPlaylistControl@@IAEXABVQMediaContent@@@Z @ 838 NONAME ; void QMediaPlaylistControl::currentMediaChanged(class QMediaContent const &)
	?setSampleSize@QAudioFormat@@QAEXH@Z @ 839 NONAME ; void QAudioFormat::setSampleSize(int)
	?isReadOnly@QMediaPlaylist@@QBE_NXZ @ 840 NONAME ; bool QMediaPlaylist::isReadOnly(void) const
	?supportedFrameRates@QMediaRecorder@@QBE?AV?$QList@M@@ABVQVideoEncoderSettings@@PA_N@Z @ 841 NONAME ; class QList<float> QMediaRecorder::supportedFrameRates(class QVideoEncoderSettings const &, bool *) const
	?mediaObject@QMediaPlaylist@@UBEPAVQMediaObject@@XZ @ 842 NONAME ; class QMediaObject * QMediaPlaylist::mediaObject(void) const
	?start@QRadioTuner@@QAEXXZ @ 843 NONAME ; void QRadioTuner::start(void)
	?play@QMediaPlayer@@QAEXXZ @ 844 NONAME ; void QMediaPlayer::play(void)
	??1QAudioEndpointSelector@@UAE@XZ @ 845 NONAME ; QAudioEndpointSelector::~QAudioEndpointSelector(void)
	?mode@QAudioDeviceInfo@@ABE?AW4Mode@QAudio@@XZ @ 846 NONAME ; enum QAudio::Mode QAudioDeviceInfo::mode(void) const
	?trUtf8@QVideoWidget@@SA?AVQString@@PBD0@Z @ 847 NONAME ; class QString QVideoWidget::trUtf8(char const *, char const *)
	?trUtf8@QAbstractAudioDeviceInfo@@SA?AVQString@@PBD0H@Z @ 848 NONAME ; class QString QAbstractAudioDeviceInfo::trUtf8(char const *, char const *, int)
	?stereoStatusChanged@QRadioTunerControl@@IAEX_N@Z @ 849 NONAME ; void QRadioTunerControl::stereoStatusChanged(bool)
	??4QMediaResource@@QAEAAV0@ABV0@@Z @ 850 NONAME ; class QMediaResource & QMediaResource::operator=(class QMediaResource const &)
	?d_func@QImageVideoBuffer@@ABEPBVQImageVideoBufferPrivate@@XZ @ 851 NONAME ; class QImageVideoBufferPrivate const * QImageVideoBuffer::d_func(void) const
	?qt_metacast@QAudioCaptureSource@@UAEPAXPBD@Z @ 852 NONAME ; void * QAudioCaptureSource::qt_metacast(char const *)
	?metaObject@QVideoWidget@@UBEPBUQMetaObject@@XZ @ 853 NONAME ; struct QMetaObject const * QVideoWidget::metaObject(void) const
	?defaultAudioInput@QAudioCaptureSource@@QBE?AVQString@@XZ @ 854 NONAME ; class QString QAudioCaptureSource::defaultAudioInput(void) const
	??0QAbstractVideoSurface@@QAE@PAVQObject@@@Z @ 855 NONAME ; QAbstractVideoSurface::QAbstractVideoSurface(class QObject *)
	?trUtf8@QImageEncoderControl@@SA?AVQString@@PBD0H@Z @ 856 NONAME ; class QString QImageEncoderControl::trUtf8(char const *, char const *, int)
	??1QMediaPlaylistWriter@@UAE@XZ @ 857 NONAME ; QMediaPlaylistWriter::~QMediaPlaylistWriter(void)
	?position@QMediaPlayer@@QBE_JXZ @ 858 NONAME ; long long QMediaPlayer::position(void) const
	?staticMetaObject@QAudioSystemPlugin@@2UQMetaObject@@B @ 859 NONAME ; struct QMetaObject const QAudioSystemPlugin::staticMetaObject
	??_EQMediaPlaylistIOInterface@@UAE@I@Z @ 860 NONAME ; QMediaPlaylistIOInterface::~QMediaPlaylistIOInterface(unsigned int)
	??_EQVideoWidget@@UAE@I@Z @ 861 NONAME ; QVideoWidget::~QVideoWidget(unsigned int)
	?contains@QMediaTimeInterval@@QBE_N_J@Z @ 862 NONAME ; bool QMediaTimeInterval::contains(long long) const
	?errorChanged@QAbstractAudioInput@@IAEXW4Error@QAudio@@@Z @ 863 NONAME ; void QAbstractAudioInput::errorChanged(enum QAudio::Error)
	??_EQMediaServiceSupportedDevicesInterface@@UAE@I@Z @ 864 NONAME ; QMediaServiceSupportedDevicesInterface::~QMediaServiceSupportedDevicesInterface(unsigned int)
	?brightnessChanged@QVideoWidget@@IAEXH@Z @ 865 NONAME ; void QVideoWidget::brightnessChanged(int)
	??_EQMediaPlaylistProvider@@UAE@I@Z @ 866 NONAME ; QMediaPlaylistProvider::~QMediaPlaylistProvider(unsigned int)
	?setResolution@QVideoEncoderSettings@@QAEXHH@Z @ 867 NONAME ; void QVideoEncoderSettings::setResolution(int, int)
	?trUtf8@QMediaControl@@SA?AVQString@@PBD0@Z @ 868 NONAME ; class QString QMediaControl::trUtf8(char const *, char const *)
	?supportedSampleRates@QAudioDeviceInfo@@QBE?AV?$QList@H@@XZ @ 869 NONAME ; class QList<int> QAudioDeviceInfo::supportedSampleRates(void) const
	??_EQMediaObject@@UAE@I@Z @ 870 NONAME ; QMediaObject::~QMediaObject(unsigned int)
	?trUtf8@QSoundEffect@@SA?AVQString@@PBD0@Z @ 871 NONAME ; class QString QSoundEffect::trUtf8(char const *, char const *)
	?qt_metacast@QGraphicsVideoItem@@UAEPAXPBD@Z @ 872 NONAME ; void * QGraphicsVideoItem::qt_metacast(char const *)
	??0QVideoFrame@@QAE@ABV0@@Z @ 873 NONAME ; QVideoFrame::QVideoFrame(class QVideoFrame const &)
	?tr@QRadioTuner@@SA?AVQString@@PBD0H@Z @ 874 NONAME ; class QString QRadioTuner::tr(char const *, char const *, int)
	?notifyIntervalChanged@QMediaObject@@IAEXH@Z @ 875 NONAME ; void QMediaObject::notifyIntervalChanged(int)
	?setMedia@QMediaImageViewer@@QAEXABVQMediaContent@@@Z @ 876 NONAME ; void QMediaImageViewer::setMedia(class QMediaContent const &)
	?tr@QMediaStreamsControl@@SA?AVQString@@PBD0H@Z @ 877 NONAME ; class QString QMediaStreamsControl::tr(char const *, char const *, int)
	?tr@QAudioOutput@@SA?AVQString@@PBD0H@Z @ 878 NONAME ; class QString QAudioOutput::tr(char const *, char const *, int)
	??YQMediaTimeRange@@QAEAAV0@ABV0@@Z @ 879 NONAME ; class QMediaTimeRange & QMediaTimeRange::operator+=(class QMediaTimeRange const &)
	?hasSupport@QMediaPlayer@@SA?AW4SupportEstimate@QtMultimediaKit@@ABVQString@@ABVQStringList@@V?$QFlags@W4Flag@QMediaPlayer@@@@@Z @ 880 NONAME ; enum QtMultimediaKit::SupportEstimate QMediaPlayer::hasSupport(class QString const &, class QStringList const &, class QFlags<enum QMediaPlayer::Flag>)
	?qt_metacast@QAudioSystemPlugin@@UAEPAXPBD@Z @ 881 NONAME ; void * QAudioSystemPlugin::qt_metacast(char const *)
	?setVideoOutput@QMediaPlayer@@QAEXPAVQVideoWidget@@@Z @ 882 NONAME ; void QMediaPlayer::setVideoOutput(class QVideoWidget *)
	?mutedChanged@QMediaRecorderControl@@IAEX_N@Z @ 883 NONAME ; void QMediaRecorderControl::mutedChanged(bool)
	??1QMediaPlaylistIOInterface@@UAE@XZ @ 884 NONAME ; QMediaPlaylistIOInterface::~QMediaPlaylistIOInterface(void)
	?map@QVideoFrame@@QAE_NW4MapMode@QAbstractVideoBuffer@@@Z @ 885 NONAME ; bool QVideoFrame::map(enum QAbstractVideoBuffer::MapMode)
	?periodSize@QAudioInput@@QBEHXZ @ 886 NONAME ; int QAudioInput::periodSize(void) const
	?handle@QAudioDeviceInfo@@ABE?AVQByteArray@@XZ @ 887 NONAME ; class QByteArray QAudioDeviceInfo::handle(void) const
	?isMetaDataWritable@QMediaRecorder@@QBE_NXZ @ 888 NONAME ; bool QMediaRecorder::isMetaDataWritable(void) const
	?qt_metacall@QMediaPlaylistSourceControl@@UAEHW4Call@QMetaObject@@HPAPAX@Z @ 889 NONAME ; int QMediaPlaylistSourceControl::qt_metacall(enum QMetaObject::Call, int, void * *)
	??0QMediaPlayer@@QAE@PAVQObject@@V?$QFlags@W4Flag@QMediaPlayer@@@@PAVQMediaServiceProvider@@@Z @ 890 NONAME ; QMediaPlayer::QMediaPlayer(class QObject *, class QFlags<enum QMediaPlayer::Flag>, class QMediaServiceProvider *)
	?mediaRemoved@QMediaPlaylistProvider@@IAEXHH@Z @ 891 NONAME ; void QMediaPlaylistProvider::mediaRemoved(int, int)
	?quality@QAudioEncoderSettings@@QBE?AW4EncodingQuality@QtMultimediaKit@@XZ @ 892 NONAME ; enum QtMultimediaKit::EncodingQuality QAudioEncoderSettings::quality(void) const
	?handleType@QAbstractVideoBuffer@@QBE?AW4HandleType@1@XZ @ 893 NONAME ; enum QAbstractVideoBuffer::HandleType QAbstractVideoBuffer::handleType(void) const
	?audioBitRate@QMediaResource@@QBEHXZ @ 894 NONAME ; int QMediaResource::audioBitRate(void) const
	?qt_metacast@QMetaDataWriterControl@@UAEPAXPBD@Z @ 895 NONAME ; void * QMetaDataWriterControl::qt_metacast(char const *)
	?trUtf8@QMediaRecorder@@SA?AVQString@@PBD0H@Z @ 896 NONAME ; class QString QMediaRecorder::trUtf8(char const *, char const *, int)
	??0QSoundEffect@@QAE@PAVQObject@@@Z @ 897 NONAME ; QSoundEffect::QSoundEffect(class QObject *)
	?bufferStatus@QMediaPlayer@@QBEHXZ @ 898 NONAME ; int QMediaPlayer::bufferStatus(void) const
	??0QAudioDeviceInfo@@AAE@ABVQString@@ABVQByteArray@@W4Mode@QAudio@@@Z @ 899 NONAME ; QAudioDeviceInfo::QAudioDeviceInfo(class QString const &, class QByteArray const &, enum QAudio::Mode)
	?metaObject@QAudioOutput@@UBEPBUQMetaObject@@XZ @ 900 NONAME ; struct QMetaObject const * QAudioOutput::metaObject(void) const
	??0QMediaTimeRange@@QAE@_J0@Z @ 901 NONAME ; QMediaTimeRange::QMediaTimeRange(long long, long long)
	?mediaAboutToBeInserted@QMediaPlaylistProvider@@IAEXHH@Z @ 902 NONAME ; void QMediaPlaylistProvider::mediaAboutToBeInserted(int, int)
	?setAspectRatioMode@QVideoWidget@@QAEXW4AspectRatioMode@Qt@@@Z @ 903 NONAME ; void QVideoWidget::setAspectRatioMode(enum Qt::AspectRatioMode)
	?qt_metacall@QVideoWindowControl@@UAEHW4Call@QMetaObject@@HPAPAX@Z @ 904 NONAME ; int QVideoWindowControl::qt_metacall(enum QMetaObject::Call, int, void * *)
	?codec@QAudioFormat@@QBE?AVQString@@XZ @ 905 NONAME ; class QString QAudioFormat::codec(void) const
	??0QMemoryVideoBuffer@@QAE@ABVQByteArray@@H@Z @ 906 NONAME ; QMemoryVideoBuffer::QMemoryVideoBuffer(class QByteArray const &, int)
	?currentIndexChanged@QMediaPlaylistNavigator@@IAEXH@Z @ 907 NONAME ; void QMediaPlaylistNavigator::currentIndexChanged(int)
	?qt_metacall@QVideoRendererControl@@UAEHW4Call@QMetaObject@@HPAPAX@Z @ 908 NONAME ; int QVideoRendererControl::qt_metacall(enum QMetaObject::Call, int, void * *)
	?setResolution@QVideoEncoderSettings@@QAEXABVQSize@@@Z @ 909 NONAME ; void QVideoEncoderSettings::setResolution(class QSize const &)
	??0QImageEncoderSettings@@QAE@XZ @ 910 NONAME ; QImageEncoderSettings::QImageEncoderSettings(void)
	?d_func@QMediaPlaylistProvider@@ABEPBVQMediaPlaylistProviderPrivate@@XZ @ 911 NONAME ; class QMediaPlaylistProviderPrivate const * QMediaPlaylistProvider::d_func(void) const
	??0QMediaTimeRange@@QAE@XZ @ 912 NONAME ; QMediaTimeRange::QMediaTimeRange(void)
	?shuffle@QMediaPlaylistProvider@@UAEXXZ @ 913 NONAME ; void QMediaPlaylistProvider::shuffle(void)
	?reset@QAudioInput@@QAEXXZ @ 914 NONAME ; void QAudioInput::reset(void)
	?trUtf8@QMetaDataWriterControl@@SA?AVQString@@PBD0@Z @ 915 NONAME ; class QString QMetaDataWriterControl::trUtf8(char const *, char const *)
	??_EQImageVideoBuffer@@UAE@I@Z @ 916 NONAME ; QImageVideoBuffer::~QImageVideoBuffer(unsigned int)
	?staticMetaObject@QAudioEndpointSelector@@2UQMetaObject@@B @ 917 NONAME ; struct QMetaObject const QAudioEndpointSelector::staticMetaObject
	??1QMediaPlayerControl@@UAE@XZ @ 918 NONAME ; QMediaPlayerControl::~QMediaPlayerControl(void)
	?d_func@QMediaControl@@AAEPAVQMediaControlPrivate@@XZ @ 919 NONAME ; class QMediaControlPrivate * QMediaControl::d_func(void)
	?metaDataAvailableChanged@QMetaDataWriterControl@@IAEX_N@Z @ 920 NONAME ; void QMetaDataWriterControl::metaDataAvailableChanged(bool)
	?notify@QAudioOutput@@IAEXXZ @ 921 NONAME ; void QAudioOutput::notify(void)
	?tr@QLocalMediaPlaylistProvider@@SA?AVQString@@PBD0H@Z @ 922 NONAME ; class QString QLocalMediaPlaylistProvider::tr(char const *, char const *, int)
	?removeMedia@QLocalMediaPlaylistProvider@@UAE_NHH@Z @ 923 NONAME ; bool QLocalMediaPlaylistProvider::removeMedia(int, int)
	?trUtf8@QMediaServiceProvider@@SA?AVQString@@PBD0H@Z @ 924 NONAME ; class QString QMediaServiceProvider::trUtf8(char const *, char const *, int)
	?isMuted@QMediaPlayer@@QBE_NXZ @ 925 NONAME ; bool QMediaPlayer::isMuted(void) const
	?tr@QMediaPlaylistSourceControl@@SA?AVQString@@PBD0H@Z @ 926 NONAME ; class QString QMediaPlaylistSourceControl::tr(char const *, char const *, int)
	?metaObject@QAudioEndpointSelector@@UBEPBUQMetaObject@@XZ @ 927 NONAME ; struct QMetaObject const * QAudioEndpointSelector::metaObject(void) const
	??0QAudioInput@@QAE@ABVQAudioFormat@@PAVQObject@@@Z @ 928 NONAME ; QAudioInput::QAudioInput(class QAudioFormat const &, class QObject *)
	??9QMediaResource@@QBE_NABV0@@Z @ 929 NONAME ; bool QMediaResource::operator!=(class QMediaResource const &) const
	??0QMediaStreamsControl@@IAE@PAVQObject@@@Z @ 930 NONAME ; QMediaStreamsControl::QMediaStreamsControl(class QObject *)
	?url@QMediaResource@@QBE?AVQUrl@@XZ @ 931 NONAME ; class QUrl QMediaResource::url(void) const
	??ZQMediaTimeRange@@QAEAAV0@ABVQMediaTimeInterval@@@Z @ 932 NONAME ; class QMediaTimeRange & QMediaTimeRange::operator-=(class QMediaTimeInterval const &)
	?canonicalUrl@QMediaContent@@QBE?AVQUrl@@XZ @ 933 NONAME ; class QUrl QMediaContent::canonicalUrl(void) const
	?tr@QVideoWidgetControl@@SA?AVQString@@PBD0H@Z @ 934 NONAME ; class QString QVideoWidgetControl::tr(char const *, char const *, int)
	?d_func@QLocalMediaPlaylistProvider@@ABEPBVQLocalMediaPlaylistProviderPrivate@@XZ @ 935 NONAME ; class QLocalMediaPlaylistProviderPrivate const * QLocalMediaPlaylistProvider::d_func(void) const
	?quality@QImageEncoderSettings@@QBE?AW4EncodingQuality@QtMultimediaKit@@XZ @ 936 NONAME ; enum QtMultimediaKit::EncodingQuality QImageEncoderSettings::quality(void) const
	?timeout@QMediaImageViewer@@QBEHXZ @ 937 NONAME ; int QMediaImageViewer::timeout(void) const
	?trUtf8@QMediaPlaylistControl@@SA?AVQString@@PBD0@Z @ 938 NONAME ; class QString QMediaPlaylistControl::trUtf8(char const *, char const *)
	?d_func@QVideoWidget@@AAEPAVQVideoWidgetPrivate@@XZ @ 939 NONAME ; class QVideoWidgetPrivate * QVideoWidget::d_func(void)
	?playbackMode@QMediaPlaylistNavigator@@QBE?AW4PlaybackMode@QMediaPlaylist@@XZ @ 940 NONAME ; enum QMediaPlaylist::PlaybackMode QMediaPlaylistNavigator::playbackMode(void) const
	?qt_metacast@QMediaPlaylist@@UAEPAXPBD@Z @ 941 NONAME ; void * QMediaPlaylist::qt_metacast(char const *)
	?elapsedUSecs@QAudioInput@@QBE_JXZ @ 942 NONAME ; long long QAudioInput::elapsedUSecs(void) const
	?frameWidth@QVideoSurfaceFormat@@QBEHXZ @ 943 NONAME ; int QVideoSurfaceFormat::frameWidth(void) const
	?resume@QAudioOutput@@QAEXXZ @ 944 NONAME ; void QAudioOutput::resume(void)
	?d_func@QMediaImageViewer@@AAEPAVQMediaImageViewerPrivate@@XZ @ 945 NONAME ; class QMediaImageViewerPrivate * QMediaImageViewer::d_func(void)
	??_EQVideoWindowControl@@UAE@I@Z @ 946 NONAME ; QVideoWindowControl::~QVideoWindowControl(unsigned int)
	?error@QRadioTuner@@IAEXW4Error@1@@Z @ 947 NONAME ; void QRadioTuner::error(enum QRadioTuner::Error)
	??_EQAudioEndpointSelector@@UAE@I@Z @ 948 NONAME ; QAudioEndpointSelector::~QAudioEndpointSelector(unsigned int)
	?isAvailable@QMediaRecorder@@QBE_NXZ @ 949 NONAME ; bool QMediaRecorder::isAvailable(void) const
	?staticMetaObject@QMediaService@@2UQMetaObject@@B @ 950 NONAME ; struct QMetaObject const QMediaService::staticMetaObject
	?d_func@QAbstractVideoSurface@@ABEPBVQAbstractVideoSurfacePrivate@@XZ @ 951 NONAME ; class QAbstractVideoSurfacePrivate const * QAbstractVideoSurface::d_func(void) const
	?d_func@QAudioCaptureSource@@AAEPAVQAudioCaptureSourcePrivate@@XZ @ 952 NONAME ; class QAudioCaptureSourcePrivate * QAudioCaptureSource::d_func(void)
	?tr@QAudioEncoderControl@@SA?AVQString@@PBD0H@Z @ 953 NONAME ; class QString QAudioEncoderControl::tr(char const *, char const *, int)
	?addInterval@QMediaTimeRange@@QAEXABVQMediaTimeInterval@@@Z @ 954 NONAME ; void QMediaTimeRange::addInterval(class QMediaTimeInterval const &)
	??_EQMediaPlaylistSourceControl@@UAE@I@Z @ 955 NONAME ; QMediaPlaylistSourceControl::~QMediaPlaylistSourceControl(unsigned int)
	??4QVideoFrame@@QAEAAV0@ABV0@@Z @ 956 NONAME ; class QVideoFrame & QVideoFrame::operator=(class QVideoFrame const &)
	?trUtf8@QMediaRecorderControl@@SA?AVQString@@PBD0H@Z @ 957 NONAME ; class QString QMediaRecorderControl::trUtf8(char const *, char const *, int)
	?nextItem@QMediaPlaylistNavigator@@QBE?AVQMediaContent@@H@Z @ 958 NONAME ; class QMediaContent QMediaPlaylistNavigator::nextItem(int) const
	?clear@QMediaPlaylistProvider@@UAE_NXZ @ 959 NONAME ; bool QMediaPlaylistProvider::clear(void)
	?isNull@QImageEncoderSettings@@QBE_NXZ @ 960 NONAME ; bool QImageEncoderSettings::isNull(void) const
	?saturationChanged@QVideoWidget@@IAEXH@Z @ 961 NONAME ; void QVideoWidget::saturationChanged(int)
	??4QMediaTimeRange@@QAEAAV0@ABVQMediaTimeInterval@@@Z @ 962 NONAME ; class QMediaTimeRange & QMediaTimeRange::operator=(class QMediaTimeInterval const &)
	?qt_metacast@QVideoWindowControl@@UAEPAXPBD@Z @ 963 NONAME ; void * QVideoWindowControl::qt_metacast(char const *)
	?metaObject@QAudioInput@@UBEPBUQMetaObject@@XZ @ 964 NONAME ; struct QMetaObject const * QAudioInput::metaObject(void) const
	?nativeSizeChanged@QVideoWindowControl@@IAEXXZ @ 965 NONAME ; void QVideoWindowControl::nativeSizeChanged(void)
	?sampleRate@QAudioEncoderSettings@@QBEHXZ @ 966 NONAME ; int QAudioEncoderSettings::sampleRate(void) const
	?stateChanged@QAudioInput@@IAEXW4State@QAudio@@@Z @ 967 NONAME ; void QAudioInput::stateChanged(enum QAudio::State)
	?tr@QVideoWindowControl@@SA?AVQString@@PBD0H@Z @ 968 NONAME ; class QString QVideoWindowControl::tr(char const *, char const *, int)
	??1QAbstractAudioOutput@@UAE@XZ @ 969 NONAME ; QAbstractAudioOutput::~QAbstractAudioOutput(void)
	?signalStrengthChanged@QRadioTunerControl@@IAEXH@Z @ 970 NONAME ; void QRadioTunerControl::signalStrengthChanged(int)
	?jump@QMediaPlaylistNavigator@@QAEXH@Z @ 971 NONAME ; void QMediaPlaylistNavigator::jump(int)
	?preferredFormat@QAudioDeviceInfo@@QBE?AVQAudioFormat@@XZ @ 972 NONAME ; class QAudioFormat QAudioDeviceInfo::preferredFormat(void) const
	?format@QAudioInput@@QBE?AVQAudioFormat@@XZ @ 973 NONAME ; class QAudioFormat QAudioInput::format(void) const
	??8QMediaServiceProviderHint@@QBE_NABV0@@Z @ 974 NONAME ; bool QMediaServiceProviderHint::operator==(class QMediaServiceProviderHint const &) const
	?qt_metacall@QMediaPlaylistIOPlugin@@UAEHW4Call@QMetaObject@@HPAPAX@Z @ 975 NONAME ; int QMediaPlaylistIOPlugin::qt_metacall(enum QMetaObject::Call, int, void * *)
	??9QAudioFormat@@QBE_NABV0@@Z @ 976 NONAME ; bool QAudioFormat::operator!=(class QAudioFormat const &) const
	?qt_metacast@QAudioEndpointSelector@@UAEPAXPBD@Z @ 977 NONAME ; void * QAudioEndpointSelector::qt_metacast(char const *)
	??0QMediaContent@@QAE@ABVQNetworkRequest@@@Z @ 978 NONAME ; QMediaContent::QMediaContent(class QNetworkRequest const &)
	?availabilityError@QAudioCaptureSource@@UBE?AW4AvailabilityError@QtMultimediaKit@@XZ @ 979 NONAME ; enum QtMultimediaKit::AvailabilityError QAudioCaptureSource::availabilityError(void) const
	?staticMetaObject@QAudioInput@@2UQMetaObject@@B @ 980 NONAME ; struct QMetaObject const QAudioInput::staticMetaObject
	??8QAudioFormat@@QBE_NABV0@@Z @ 981 NONAME ; bool QAudioFormat::operator==(class QAudioFormat const &) const
	?width@QVideoFrame@@QBEHXZ @ 982 NONAME ; int QVideoFrame::width(void) const
	?durationChanged@QMediaPlayer@@IAEX_J@Z @ 983 NONAME ; void QMediaPlayer::durationChanged(long long)
	?qt_metacall@QSoundEffect@@UAEHW4Call@QMetaObject@@HPAPAX@Z @ 984 NONAME ; int QSoundEffect::qt_metacall(enum QMetaObject::Call, int, void * *)
	?setVolume@QSoundEffect@@QAEXM@Z @ 985 NONAME ; void QSoundEffect::setVolume(float)
	?setCurrentIndex@QMediaPlaylist@@QAEXH@Z @ 986 NONAME ; void QMediaPlaylist::setCurrentIndex(int)
	?size@QGraphicsVideoItem@@QBE?AVQSizeF@@XZ @ 987 NONAME ; class QSizeF QGraphicsVideoItem::size(void) const
	??4QAudioDeviceInfo@@QAEAAV0@ABV0@@Z @ 988 NONAME ; class QAudioDeviceInfo & QAudioDeviceInfo::operator=(class QAudioDeviceInfo const &)
	?signalStrengthChanged@QRadioTuner@@IAEXH@Z @ 989 NONAME ; void QRadioTuner::signalStrengthChanged(int)
	?selectedDeviceChanged@QVideoDeviceControl@@IAEXH@Z @ 990 NONAME ; void QVideoDeviceControl::selectedDeviceChanged(int)
	?metaObject@QImageEncoderControl@@UBEPBUQMetaObject@@XZ @ 991 NONAME ; struct QMetaObject const * QImageEncoderControl::metaObject(void) const
	?state@QAudioOutput@@QBE?AW4State@QAudio@@XZ @ 992 NONAME ; enum QAudio::State QAudioOutput::state(void) const
	?extendedMetaData@QMediaRecorder@@QBE?AVQVariant@@ABVQString@@@Z @ 993 NONAME ; class QVariant QMediaRecorder::extendedMetaData(class QString const &) const
	?mutedChanged@QRadioTunerControl@@IAEX_N@Z @ 994 NONAME ; void QRadioTunerControl::mutedChanged(bool)
	?staticMetaObject@QMediaImageViewer@@2UQMetaObject@@B @ 995 NONAME ; struct QMetaObject const QMediaImageViewer::staticMetaObject
	?paint@QGraphicsVideoItem@@UAEXPAVQPainter@@PBVQStyleOptionGraphicsItem@@PAVQWidget@@@Z @ 996 NONAME ; void QGraphicsVideoItem::paint(class QPainter *, class QStyleOptionGraphicsItem const *, class QWidget *)
	??6@YA?AVQDebug@@V0@ABVQVideoSurfaceFormat@@@Z @ 997 NONAME ; class QDebug operator<<(class QDebug, class QVideoSurfaceFormat const &)
	?start@QAudioOutput@@QAEXPAVQIODevice@@@Z @ 998 NONAME ; void QAudioOutput::start(class QIODevice *)
	?tr@QMediaPlayerControl@@SA?AVQString@@PBD0H@Z @ 999 NONAME ; class QString QMediaPlayerControl::tr(char const *, char const *, int)
	??_EQAbstractVideoSurface@@UAE@I@Z @ 1000 NONAME ; QAbstractVideoSurface::~QAbstractVideoSurface(unsigned int)
	?mediaStatusChanged@QMediaImageViewer@@IAEXW4MediaStatus@1@@Z @ 1001 NONAME ; void QMediaImageViewer::mediaStatusChanged(enum QMediaImageViewer::MediaStatus)
	?setVideoCodec@QMediaResource@@QAEXABVQString@@@Z @ 1002 NONAME ; void QMediaResource::setVideoCodec(class QString const &)
	?brightnessChanged@QVideoWidgetControl@@IAEXH@Z @ 1003 NONAME ; void QVideoWidgetControl::brightnessChanged(int)
	?staticMetaObject@QVideoRendererControl@@2UQMetaObject@@B @ 1004 NONAME ; struct QMetaObject const QVideoRendererControl::staticMetaObject
	??0QMediaPlaylist@@QAE@PAVQObject@@@Z @ 1005 NONAME ; QMediaPlaylist::QMediaPlaylist(class QObject *)
	??4QVideoSurfaceFormat@@QAEAAV0@ABV0@@Z @ 1006 NONAME ; class QVideoSurfaceFormat & QVideoSurfaceFormat::operator=(class QVideoSurfaceFormat const &)
	?qt_metacall@QLocalMediaPlaylistProvider@@UAEHW4Call@QMetaObject@@HPAPAX@Z @ 1007 NONAME ; int QLocalMediaPlaylistProvider::qt_metacall(enum QMetaObject::Call, int, void * *)
	?getStaticMetaObject@QVideoRendererControl@@SAABUQMetaObject@@XZ @ 1008 NONAME ; struct QMetaObject const & QVideoRendererControl::getStaticMetaObject(void)
	?metaObject@QMediaContainerControl@@UBEPBUQMetaObject@@XZ @ 1009 NONAME ; struct QMetaObject const * QMediaContainerControl::metaObject(void) const
	??9QVideoSurfaceFormat@@QBE_NABV0@@Z @ 1010 NONAME ; bool QVideoSurfaceFormat::operator!=(class QVideoSurfaceFormat const &) const
	??_EQSoundEffect@@UAE@I@Z @ 1011 NONAME ; QSoundEffect::~QSoundEffect(unsigned int)
	??_EQMemoryVideoBuffer@@UAE@I@Z @ 1012 NONAME ; QMemoryVideoBuffer::~QMemoryVideoBuffer(unsigned int)
	??1QMediaPlaylistIOPlugin@@UAE@XZ @ 1013 NONAME ; QMediaPlaylistIOPlugin::~QMediaPlaylistIOPlugin(void)
	?quality@QVideoEncoderSettings@@QBE?AW4EncodingQuality@QtMultimediaKit@@XZ @ 1014 NONAME ; enum QtMultimediaKit::EncodingQuality QVideoEncoderSettings::quality(void) const
	?playbackRateChanged@QMediaPlayerControl@@IAEXM@Z @ 1015 NONAME ; void QMediaPlayerControl::playbackRateChanged(float)
	??0QVideoEncoderSettings@@QAE@XZ @ 1016 NONAME ; QVideoEncoderSettings::QVideoEncoderSettings(void)
	?staticMetaObject@QMediaPlayerControl@@2UQMetaObject@@B @ 1017 NONAME ; struct QMetaObject const QMediaPlayerControl::staticMetaObject
	?trUtf8@QVideoDeviceControl@@SA?AVQString@@PBD0@Z @ 1018 NONAME ; class QString QVideoDeviceControl::trUtf8(char const *, char const *)
	??0QMediaControl@@IAE@PAVQObject@@@Z @ 1019 NONAME ; QMediaControl::QMediaControl(class QObject *)
	?currentItem@QMediaPlaylistNavigator@@QBE?AVQMediaContent@@XZ @ 1020 NONAME ; class QMediaContent QMediaPlaylistNavigator::currentItem(void) const
	?mediaAboutToBeRemoved@QMediaPlaylistProvider@@IAEXHH@Z @ 1021 NONAME ; void QMediaPlaylistProvider::mediaAboutToBeRemoved(int, int)
	?tr@QVideoRendererControl@@SA?AVQString@@PBD0@Z @ 1022 NONAME ; class QString QVideoRendererControl::tr(char const *, char const *)
	?boundingRect@QGraphicsVideoItem@@UBE?AVQRectF@@XZ @ 1023 NONAME ; class QRectF QGraphicsVideoItem::boundingRect(void) const
	?qt_metacast@QAudioEncoderControl@@UAEPAXPBD@Z @ 1024 NONAME ; void * QAudioEncoderControl::qt_metacast(char const *)
	?property@QVideoSurfaceFormat@@QBE?AVQVariant@@PBD@Z @ 1025 NONAME ; class QVariant QVideoSurfaceFormat::property(char const *) const
	?qt_metacast@QMediaContainerControl@@UAEPAXPBD@Z @ 1026 NONAME ; void * QMediaContainerControl::qt_metacast(char const *)
	?trUtf8@QVideoWidgetControl@@SA?AVQString@@PBD0@Z @ 1027 NONAME ; class QString QVideoWidgetControl::trUtf8(char const *, char const *)
	?qt_metacast@QAudioOutput@@UAEPAXPBD@Z @ 1028 NONAME ; void * QAudioOutput::qt_metacast(char const *)
	??1QMediaServiceSupportedDevicesInterface@@UAE@XZ @ 1029 NONAME ; QMediaServiceSupportedDevicesInterface::~QMediaServiceSupportedDevicesInterface(void)
	?qt_metacall@QAbstractAudioInput@@UAEHW4Call@QMetaObject@@HPAPAX@Z @ 1030 NONAME ; int QAbstractAudioInput::qt_metacall(enum QMetaObject::Call, int, void * *)
	??1QAudioSystemFactoryInterface@@UAE@XZ @ 1031 NONAME ; QAudioSystemFactoryInterface::~QAudioSystemFactoryInterface(void)
	?qt_metacast@QRadioTunerControl@@UAEPAXPBD@Z @ 1032 NONAME ; void * QRadioTunerControl::qt_metacast(char const *)
	?d_func@QMemoryVideoBuffer@@AAEPAVQMemoryVideoBufferPrivate@@XZ @ 1033 NONAME ; class QMemoryVideoBufferPrivate * QMemoryVideoBuffer::d_func(void)
	?qt_metacall@QMediaContainerControl@@UAEHW4Call@QMetaObject@@HPAPAX@Z @ 1034 NONAME ; int QMediaContainerControl::qt_metacall(enum QMetaObject::Call, int, void * *)
	?qt_metacast@QMediaPlaylistSourceControl@@UAEPAXPBD@Z @ 1035 NONAME ; void * QMediaPlaylistSourceControl::qt_metacast(char const *)
	?qt_metacast@QMediaServiceProvider@@UAEPAXPBD@Z @ 1036 NONAME ; void * QMediaServiceProvider::qt_metacast(char const *)
	??1QMediaRecorderControl@@UAE@XZ @ 1037 NONAME ; QMediaRecorderControl::~QMediaRecorderControl(void)
	?isMetaDataAvailable@QMediaObject@@QBE_NXZ @ 1038 NONAME ; bool QMediaObject::isMetaDataAvailable(void) const
	?saturationChanged@QVideoWidgetControl@@IAEXH@Z @ 1039 NONAME ; void QVideoWidgetControl::saturationChanged(int)
	?channelCount@QAudioEncoderSettings@@QBEHXZ @ 1040 NONAME ; int QAudioEncoderSettings::channelCount(void) const
	?d_func@QMediaImageViewer@@ABEPBVQMediaImageViewerPrivate@@XZ @ 1041 NONAME ; class QMediaImageViewerPrivate const * QMediaImageViewer::d_func(void) const
	?getStaticMetaObject@QAudioSystemPlugin@@SAABUQMetaObject@@XZ @ 1042 NONAME ; struct QMetaObject const & QAudioSystemPlugin::getStaticMetaObject(void)
	??1QLocalMediaPlaylistProvider@@UAE@XZ @ 1043 NONAME ; QLocalMediaPlaylistProvider::~QLocalMediaPlaylistProvider(void)
	??_EQAudioInput@@UAE@I@Z @ 1044 NONAME ; QAudioInput::~QAudioInput(unsigned int)
	?state@QRadioTuner@@QBE?AW4State@1@XZ @ 1045 NONAME ; enum QRadioTuner::State QRadioTuner::state(void) const
	?metaObject@QVideoWidgetControl@@UBEPBUQMetaObject@@XZ @ 1046 NONAME ; struct QMetaObject const * QVideoWidgetControl::metaObject(void) const
	??0QMetaDataReaderControl@@IAE@PAVQObject@@@Z @ 1047 NONAME ; QMetaDataReaderControl::QMetaDataReaderControl(class QObject *)
	?qt_metacall@QMediaControl@@UAEHW4Call@QMetaObject@@HPAPAX@Z @ 1048 NONAME ; int QMediaControl::qt_metacall(enum QMetaObject::Call, int, void * *)
	?frameRate@QVideoEncoderSettings@@QBEMXZ @ 1049 NONAME ; float QVideoEncoderSettings::frameRate(void) const
	?tr@QMediaContainerControl@@SA?AVQString@@PBD0@Z @ 1050 NONAME ; class QString QMediaContainerControl::tr(char const *, char const *)
	??4QMediaTimeRange@@QAEAAV0@ABV0@@Z @ 1051 NONAME ; class QMediaTimeRange & QMediaTimeRange::operator=(class QMediaTimeRange const &)
	?qt_metacast@QVideoWidgetControl@@UAEPAXPBD@Z @ 1052 NONAME ; void * QVideoWidgetControl::qt_metacast(char const *)
	?unbind@QMediaImageViewer@@UAEXPAVQObject@@@Z @ 1053 NONAME ; void QMediaImageViewer::unbind(class QObject *)
	?signalStrength@QRadioTuner@@QBEHXZ @ 1054 NONAME ; int QRadioTuner::signalStrength(void) const
	?videoCodec@QMediaResource@@QBE?AVQString@@XZ @ 1055 NONAME ; class QString QMediaResource::videoCodec(void) const
	?band@QRadioTuner@@QBE?AW4Band@1@XZ @ 1056 NONAME ; enum QRadioTuner::Band QRadioTuner::band(void) const
	?staticMetaObject@QMediaServiceProviderPlugin@@2UQMetaObject@@B @ 1057 NONAME ; struct QMetaObject const QMediaServiceProviderPlugin::staticMetaObject
	?insertMedia@QMediaPlaylistProvider@@UAE_NHABVQMediaContent@@@Z @ 1058 NONAME ; bool QMediaPlaylistProvider::insertMedia(int, class QMediaContent const &)
	??1QMemoryVideoBuffer@@UAE@XZ @ 1059 NONAME ; QMemoryVideoBuffer::~QMemoryVideoBuffer(void)
	??1QRadioTuner@@UAE@XZ @ 1060 NONAME ; QRadioTuner::~QRadioTuner(void)
	?error@QMediaPlayer@@IAEXW4Error@1@@Z @ 1061 NONAME ; void QMediaPlayer::error(enum QMediaPlayer::Error)
	?tr@QGraphicsVideoItem@@SA?AVQString@@PBD0H@Z @ 1062 NONAME ; class QString QGraphicsVideoItem::tr(char const *, char const *, int)
	?getStaticMetaObject@QMediaServiceProvider@@SAABUQMetaObject@@XZ @ 1063 NONAME ; struct QMetaObject const & QMediaServiceProvider::getStaticMetaObject(void)
	?setBitRate@QAudioEncoderSettings@@QAEXH@Z @ 1064 NONAME ; void QAudioEncoderSettings::setBitRate(int)
	?isSeekable@QMediaPlayer@@QBE_NXZ @ 1065 NONAME ; bool QMediaPlayer::isSeekable(void) const
	?metaObject@QMediaPlaylistIOPlugin@@UBEPBUQMetaObject@@XZ @ 1066 NONAME ; struct QMetaObject const * QMediaPlaylistIOPlugin::metaObject(void) const
	?tr@QMediaPlayer@@SA?AVQString@@PBD0@Z @ 1067 NONAME ; class QString QMediaPlayer::tr(char const *, char const *)
	?setCodec@QAudioEncoderSettings@@QAEXABVQString@@@Z @ 1068 NONAME ; void QAudioEncoderSettings::setCodec(class QString const &)
	?isActive@QAbstractVideoSurface@@QBE_NXZ @ 1069 NONAME ; bool QAbstractVideoSurface::isActive(void) const
	??_EQMediaBindableInterface@@UAE@I@Z @ 1070 NONAME ; QMediaBindableInterface::~QMediaBindableInterface(unsigned int)
	?setYCbCrColorSpace@QVideoSurfaceFormat@@QAEXW4YCbCrColorSpace@1@@Z @ 1071 NONAME ; void QVideoSurfaceFormat::setYCbCrColorSpace(enum QVideoSurfaceFormat::YCbCrColorSpace)
	?setPlaybackMode@QMediaPlaylist@@QAEXW4PlaybackMode@1@@Z @ 1072 NONAME ; void QMediaPlaylist::setPlaybackMode(enum QMediaPlaylist::PlaybackMode)
	?volumeChanged@QRadioTuner@@IAEXH@Z @ 1073 NONAME ; void QRadioTuner::volumeChanged(int)
	?metaObject@QVideoWindowControl@@UBEPBUQMetaObject@@XZ @ 1074 NONAME ; struct QMetaObject const * QVideoWindowControl::metaObject(void) const
	?setFrequency@QAudioFormat@@QAEXH@Z @ 1075 NONAME ; void QAudioFormat::setFrequency(int)
	?trUtf8@QMediaControl@@SA?AVQString@@PBD0H@Z @ 1076 NONAME ; class QString QMediaControl::trUtf8(char const *, char const *, int)
	?selectedDeviceChanged@QVideoDeviceControl@@IAEXABVQString@@@Z @ 1077 NONAME ; void QVideoDeviceControl::selectedDeviceChanged(class QString const &)
	?setFrameRate@QVideoEncoderSettings@@QAEXM@Z @ 1078 NONAME ; void QVideoEncoderSettings::setFrameRate(float)
	?notify@QAbstractAudioOutput@@IAEXXZ @ 1079 NONAME ; void QAbstractAudioOutput::notify(void)
	?getStaticMetaObject@QMediaImageViewer@@SAABUQMetaObject@@XZ @ 1080 NONAME ; struct QMetaObject const & QMediaImageViewer::getStaticMetaObject(void)
	??_EQMediaImageViewer@@UAE@I@Z @ 1081 NONAME ; QMediaImageViewer::~QMediaImageViewer(unsigned int)
	??0QMediaPlaylistProvider@@QAE@PAVQObject@@@Z @ 1082 NONAME ; QMediaPlaylistProvider::QMediaPlaylistProvider(class QObject *)
	?trUtf8@QMediaServiceProviderPlugin@@SA?AVQString@@PBD0@Z @ 1083 NONAME ; class QString QMediaServiceProviderPlugin::trUtf8(char const *, char const *)
	?tr@QMediaServiceProvider@@SA?AVQString@@PBD0@Z @ 1084 NONAME ; class QString QMediaServiceProvider::tr(char const *, char const *)
	?loaded@QMediaPlaylistProvider@@IAEXXZ @ 1085 NONAME ; void QMediaPlaylistProvider::loaded(void)
	?staticMetaObject@QMediaPlayer@@2UQMetaObject@@B @ 1086 NONAME ; struct QMetaObject const QMediaPlayer::staticMetaObject
	??1QMediaPlaylist@@UAE@XZ @ 1087 NONAME ; QMediaPlaylist::~QMediaPlaylist(void)
	?error@QRadioTunerControl@@IAEXW4Error@QRadioTuner@@@Z @ 1088 NONAME ; void QRadioTunerControl::error(enum QRadioTuner::Error)
	?playbackRateChanged@QMediaPlayer@@IAEXM@Z @ 1089 NONAME ; void QMediaPlayer::playbackRateChanged(float)
	?setFrameSize@QVideoSurfaceFormat@@QAEXHH@Z @ 1090 NONAME ; void QVideoSurfaceFormat::setFrameSize(int, int)
	?getStaticMetaObject@QMediaContainerControl@@SAABUQMetaObject@@XZ @ 1091 NONAME ; struct QMetaObject const & QMediaContainerControl::getStaticMetaObject(void)
	?metaData@QMediaObject@@QBE?AVQVariant@@W4MetaData@QtMultimediaKit@@@Z @ 1092 NONAME ; class QVariant QMediaObject::metaData(enum QtMultimediaKit::MetaData) const
	?mimeType@QMediaServiceProviderHint@@QBE?AVQString@@XZ @ 1093 NONAME ; class QString QMediaServiceProviderHint::mimeType(void) const
	?outputLocation@QMediaRecorder@@QBE?AVQUrl@@XZ @ 1094 NONAME ; class QUrl QMediaRecorder::outputLocation(void) const
	?load@QMediaPlaylistProvider@@UAE_NPAVQIODevice@@PBD@Z @ 1095 NONAME ; bool QMediaPlaylistProvider::load(class QIODevice *, char const *)
	?error@QMediaRecorder@@IAEXW4Error@1@@Z @ 1096 NONAME ; void QMediaRecorder::error(enum QMediaRecorder::Error)
	?metaObject@QMediaPlayerControl@@UBEPBUQMetaObject@@XZ @ 1097 NONAME ; struct QMetaObject const * QMediaPlayerControl::metaObject(void) const
	??_EQMediaServiceFeaturesInterface@@UAE@I@Z @ 1098 NONAME ; QMediaServiceFeaturesInterface::~QMediaServiceFeaturesInterface(unsigned int)
	??_EQAbstractAudioInput@@UAE@I@Z @ 1099 NONAME ; QAbstractAudioInput::~QAbstractAudioInput(unsigned int)
	?moveEvent@QVideoWidget@@MAEXPAVQMoveEvent@@@Z @ 1100 NONAME ; void QVideoWidget::moveEvent(class QMoveEvent *)
	?audioCodec@QMediaResource@@QBE?AVQString@@XZ @ 1101 NONAME ; class QString QMediaResource::audioCodec(void) const
	??_EQGraphicsVideoItem@@UAE@I@Z @ 1102 NONAME ; QGraphicsVideoItem::~QGraphicsVideoItem(unsigned int)
	?staticMetaObject@QVideoEncoderControl@@2UQMetaObject@@B @ 1103 NONAME ; struct QMetaObject const QVideoEncoderControl::staticMetaObject
	?start@QAudioInput@@QAEPAVQIODevice@@XZ @ 1104 NONAME ; class QIODevice * QAudioInput::start(void)
	?pixelAspectRatio@QVideoSurfaceFormat@@QBE?AVQSize@@XZ @ 1105 NONAME ; class QSize QVideoSurfaceFormat::pixelAspectRatio(void) const
	??_EQLocalMediaPlaylistProvider@@UAE@I@Z @ 1106 NONAME ; QLocalMediaPlaylistProvider::~QLocalMediaPlaylistProvider(unsigned int)
	?trUtf8@QSoundEffect@@SA?AVQString@@PBD0H@Z @ 1107 NONAME ; class QString QSoundEffect::trUtf8(char const *, char const *, int)
	?getStaticMetaObject@QMediaService@@SAABUQMetaObject@@XZ @ 1108 NONAME ; struct QMetaObject const & QMediaService::getStaticMetaObject(void)
	??4QAudioFormat@@QAEAAV0@ABV0@@Z @ 1109 NONAME ; class QAudioFormat & QAudioFormat::operator=(class QAudioFormat const &)
	?isReadable@QVideoFrame@@QBE_NXZ @ 1110 NONAME ; bool QVideoFrame::isReadable(void) const
	?trUtf8@QMediaRecorder@@SA?AVQString@@PBD0@Z @ 1111 NONAME ; class QString QMediaRecorder::trUtf8(char const *, char const *)
	?setResolution@QImageEncoderSettings@@QAEXHH@Z @ 1112 NONAME ; void QImageEncoderSettings::setResolution(int, int)
	??_EQRadioTuner@@UAE@I@Z @ 1113 NONAME ; QRadioTuner::~QRadioTuner(unsigned int)
	?setVideoOutput@QMediaPlayer@@QAEXPAVQGraphicsVideoItem@@@Z @ 1114 NONAME ; void QMediaPlayer::setVideoOutput(class QGraphicsVideoItem *)
	??0QAudioInput@@QAE@ABVQAudioDeviceInfo@@ABVQAudioFormat@@PAVQObject@@@Z @ 1115 NONAME ; QAudioInput::QAudioInput(class QAudioDeviceInfo const &, class QAudioFormat const &, class QObject *)
	?setSize@QGraphicsVideoItem@@QAEXABVQSizeF@@@Z @ 1116 NONAME ; void QGraphicsVideoItem::setSize(class QSizeF const &)
	?codec@QAudioEncoderSettings@@QBE?AVQString@@XZ @ 1117 NONAME ; class QString QAudioEncoderSettings::codec(void) const
	?periodSize@QAudioOutput@@QBEHXZ @ 1118 NONAME ; int QAudioOutput::periodSize(void) const
	?trUtf8@QMediaPlaylistNavigator@@SA?AVQString@@PBD0H@Z @ 1119 NONAME ; class QString QMediaPlaylistNavigator::trUtf8(char const *, char const *, int)
	??1QMediaImageViewer@@UAE@XZ @ 1120 NONAME ; QMediaImageViewer::~QMediaImageViewer(void)
	??0QAudioDeviceInfo@@QAE@XZ @ 1121 NONAME ; QAudioDeviceInfo::QAudioDeviceInfo(void)
	?setCodec@QAudioFormat@@QAEXABVQString@@@Z @ 1122 NONAME ; void QAudioFormat::setCodec(class QString const &)
	?getStaticMetaObject@QLocalMediaPlaylistProvider@@SAABUQMetaObject@@XZ @ 1123 NONAME ; struct QMetaObject const & QLocalMediaPlaylistProvider::getStaticMetaObject(void)
	??1QMediaResource@@QAE@XZ @ 1124 NONAME ; QMediaResource::~QMediaResource(void)
	?tr@QAbstractAudioInput@@SA?AVQString@@PBD0H@Z @ 1125 NONAME ; class QString QAbstractAudioInput::tr(char const *, char const *, int)
	?save@QMediaPlaylistProvider@@UAE_NPAVQIODevice@@PBD@Z @ 1126 NONAME ; bool QMediaPlaylistProvider::save(class QIODevice *, char const *)
	?removeTimeRange@QMediaTimeRange@@QAEXABV1@@Z @ 1127 NONAME ; void QMediaTimeRange::removeTimeRange(class QMediaTimeRange const &)
	?setStartTime@QVideoFrame@@QAEX_J@Z @ 1128 NONAME ; void QVideoFrame::setStartTime(long long)
	?d_func@QLocalMediaPlaylistProvider@@AAEPAVQLocalMediaPlaylistProviderPrivate@@XZ @ 1129 NONAME ; class QLocalMediaPlaylistProviderPrivate * QLocalMediaPlaylistProvider::d_func(void)
	?metaObject@QMediaRecorder@@UBEPBUQMetaObject@@XZ @ 1130 NONAME ; struct QMetaObject const * QMediaRecorder::metaObject(void) const
	?unmap@QMemoryVideoBuffer@@UAEXXZ @ 1131 NONAME ; void QMemoryVideoBuffer::unmap(void)
	?d_func@QMediaPlaylistProvider@@AAEPAVQMediaPlaylistProviderPrivate@@XZ @ 1132 NONAME ; class QMediaPlaylistProviderPrivate * QMediaPlaylistProvider::d_func(void)
	??0QMediaObject@@IAE@AAVQMediaObjectPrivate@@PAVQObject@@PAVQMediaService@@@Z @ 1133 NONAME ; QMediaObject::QMediaObject(class QMediaObjectPrivate &, class QObject *, class QMediaService *)
	?tr@QMetaDataWriterControl@@SA?AVQString@@PBD0H@Z @ 1134 NONAME ; class QString QMetaDataWriterControl::tr(char const *, char const *, int)
	?isAudioAvailable@QMediaPlayer@@QBE_NXZ @ 1135 NONAME ; bool QMediaPlayer::isAudioAvailable(void) const
	?mediaAboutToBeInserted@QMediaPlaylist@@IAEXHH@Z @ 1136 NONAME ; void QMediaPlaylist::mediaAboutToBeInserted(int, int)
	??0QAudioFormat@@QAE@ABV0@@Z @ 1137 NONAME ; QAudioFormat::QAudioFormat(class QAudioFormat const &)
	?qt_metacall@QMediaObject@@UAEHW4Call@QMetaObject@@HPAPAX@Z @ 1138 NONAME ; int QMediaObject::qt_metacall(enum QMetaObject::Call, int, void * *)
	?getStaticMetaObject@QMediaPlayer@@SAABUQMetaObject@@XZ @ 1139 NONAME ; struct QMetaObject const & QMediaPlayer::getStaticMetaObject(void)
	?bufferSize@QAudioInput@@QBEHXZ @ 1140 NONAME ; int QAudioInput::bufferSize(void) const
	?staticMetaObject@QMediaServiceProvider@@2UQMetaObject@@B @ 1141 NONAME ; struct QMetaObject const QMediaServiceProvider::staticMetaObject
	?error@QAudioInput@@QBE?AW4Error@QAudio@@XZ @ 1142 NONAME ; enum QAudio::Error QAudioInput::error(void) const
	?getStaticMetaObject@QVideoEncoderControl@@SAABUQMetaObject@@XZ @ 1143 NONAME ; struct QMetaObject const & QVideoEncoderControl::getStaticMetaObject(void)
	?qt_metacall@QMediaPlaylistControl@@UAEHW4Call@QMetaObject@@HPAPAX@Z @ 1144 NONAME ; int QMediaPlaylistControl::qt_metacall(enum QMetaObject::Call, int, void * *)
	??0QLocalMediaPlaylistProvider@@QAE@PAVQObject@@@Z @ 1145 NONAME ; QLocalMediaPlaylistProvider::QLocalMediaPlaylistProvider(class QObject *)
	?notifyInterval@QMediaObject@@QBEHXZ @ 1146 NONAME ; int QMediaObject::notifyInterval(void) const
	??0QMediaContent@@QAE@ABVQMediaResource@@@Z @ 1147 NONAME ; QMediaContent::QMediaContent(class QMediaResource const &)
	?qt_metacall@QVideoDeviceControl@@UAEHW4Call@QMetaObject@@HPAPAX@Z @ 1148 NONAME ; int QVideoDeviceControl::qt_metacall(enum QMetaObject::Call, int, void * *)
	?tr@QAbstractAudioDeviceInfo@@SA?AVQString@@PBD0H@Z @ 1149 NONAME ; class QString QAbstractAudioDeviceInfo::tr(char const *, char const *, int)
	??_EQMediaPlaylistWriter@@UAE@I@Z @ 1150 NONAME ; QMediaPlaylistWriter::~QMediaPlaylistWriter(unsigned int)
	?trUtf8@QAudioInput@@SA?AVQString@@PBD0H@Z @ 1151 NONAME ; class QString QAudioInput::trUtf8(char const *, char const *, int)
	?trUtf8@QAudioSystemPlugin@@SA?AVQString@@PBD0@Z @ 1152 NONAME ; class QString QAudioSystemPlugin::trUtf8(char const *, char const *)
	?getStaticMetaObject@QAudioEncoderControl@@SAABUQMetaObject@@XZ @ 1153 NONAME ; struct QMetaObject const & QAudioEncoderControl::getStaticMetaObject(void)
	?resources@QMediaContent@@QBE?AV?$QList@VQMediaResource@@@@XZ @ 1154 NONAME ; class QList<class QMediaResource> QMediaContent::resources(void) const
	?trUtf8@QAbstractVideoSurface@@SA?AVQString@@PBD0H@Z @ 1155 NONAME ; class QString QAbstractVideoSurface::trUtf8(char const *, char const *, int)
	?shuffle@QLocalMediaPlaylistProvider@@UAEXXZ @ 1156 NONAME ; void QLocalMediaPlaylistProvider::shuffle(void)
	?nativeSize@QGraphicsVideoItem@@QBE?AVQSizeF@@XZ @ 1157 NONAME ; class QSizeF QGraphicsVideoItem::nativeSize(void) const
	?setEncodingSettings@QMediaRecorder@@QAEXABVQAudioEncoderSettings@@ABVQVideoEncoderSettings@@ABVQString@@@Z @ 1158 NONAME ; void QMediaRecorder::setEncodingSettings(class QAudioEncoderSettings const &, class QVideoEncoderSettings const &, class QString const &)
	?event@QVideoWidget@@MAE_NPAVQEvent@@@Z @ 1159 NONAME ; bool QVideoWidget::event(class QEvent *)
	?processedUSecs@QAudioOutput@@QBE_JXZ @ 1160 NONAME ; long long QAudioOutput::processedUSecs(void) const
	?setChannels@QAudioFormat@@QAEXH@Z @ 1161 NONAME ; void QAudioFormat::setChannels(int)
	?tr@QAudioCaptureSource@@SA?AVQString@@PBD0@Z @ 1162 NONAME ; class QString QAudioCaptureSource::tr(char const *, char const *)
	?volumeChanged@QMediaPlayerControl@@IAEXH@Z @ 1163 NONAME ; void QMediaPlayerControl::volumeChanged(int)
	?trUtf8@QVideoRendererControl@@SA?AVQString@@PBD0H@Z @ 1164 NONAME ; class QString QVideoRendererControl::trUtf8(char const *, char const *, int)
	?trUtf8@QMediaPlaylistSourceControl@@SA?AVQString@@PBD0@Z @ 1165 NONAME ; class QString QMediaPlaylistSourceControl::trUtf8(char const *, char const *)
	?isMuted@QMediaRecorder@@QBE_NXZ @ 1166 NONAME ; bool QMediaRecorder::isMuted(void) const
	?trUtf8@QMediaService@@SA?AVQString@@PBD0@Z @ 1167 NONAME ; class QString QMediaService::trUtf8(char const *, char const *)
	?getStaticMetaObject@QMediaRecorderControl@@SAABUQMetaObject@@XZ @ 1168 NONAME ; struct QMetaObject const & QMediaRecorderControl::getStaticMetaObject(void)
	??0QAudioSystemPlugin@@QAE@PAVQObject@@@Z @ 1169 NONAME ; QAudioSystemPlugin::QAudioSystemPlugin(class QObject *)
	?resolution@QImageEncoderSettings@@QBE?AVQSize@@XZ @ 1170 NONAME ; class QSize QImageEncoderSettings::resolution(void) const
	?setPlaybackRate@QMediaPlayer@@QAEXM@Z @ 1171 NONAME ; void QMediaPlayer::setPlaybackRate(float)
	?availableExtendedMetaData@QMediaObject@@QBE?AVQStringList@@XZ @ 1172 NONAME ; class QStringList QMediaObject::availableExtendedMetaData(void) const
	??ZQMediaTimeRange@@QAEAAV0@ABV0@@Z @ 1173 NONAME ; class QMediaTimeRange & QMediaTimeRange::operator-=(class QMediaTimeRange const &)
	?brightness@QVideoWidget@@QBEHXZ @ 1174 NONAME ; int QVideoWidget::brightness(void) const
	??0QMediaTimeRange@@QAE@ABV0@@Z @ 1175 NONAME ; QMediaTimeRange::QMediaTimeRange(class QMediaTimeRange const &)
	?state@QMediaRecorder@@QBE?AW4State@1@XZ @ 1176 NONAME ; enum QMediaRecorder::State QMediaRecorder::state(void) const
	?tr@QMediaRecorder@@SA?AVQString@@PBD0H@Z @ 1177 NONAME ; class QString QMediaRecorder::tr(char const *, char const *, int)
	?trUtf8@QVideoEncoderControl@@SA?AVQString@@PBD0H@Z @ 1178 NONAME ; class QString QVideoEncoderControl::trUtf8(char const *, char const *, int)
	?hueChanged@QVideoWindowControl@@IAEXH@Z @ 1179 NONAME ; void QVideoWindowControl::hueChanged(int)
	?qt_metacast@QMediaService@@UAEPAXPBD@Z @ 1180 NONAME ; void * QMediaService::qt_metacast(char const *)
	?endTime@QVideoFrame@@QBE_JXZ @ 1181 NONAME ; long long QVideoFrame::endTime(void) const
	??0QAbstractVideoBuffer@@QAE@W4HandleType@0@@Z @ 1182 NONAME ; QAbstractVideoBuffer::QAbstractVideoBuffer(enum QAbstractVideoBuffer::HandleType)
	?defaultOutputDevice@QAudioDeviceInfo@@SA?AV1@XZ @ 1183 NONAME ; class QAudioDeviceInfo QAudioDeviceInfo::defaultOutputDevice(void)
	?tr@QMediaRecorderControl@@SA?AVQString@@PBD0@Z @ 1184 NONAME ; class QString QMediaRecorderControl::tr(char const *, char const *)
	?suspend@QAudioOutput@@QAEXXZ @ 1185 NONAME ; void QAudioOutput::suspend(void)
	??1QAbstractVideoSurface@@UAE@XZ @ 1186 NONAME ; QAbstractVideoSurface::~QAbstractVideoSurface(void)
	?previousIndex@QMediaPlaylist@@QBEHH@Z @ 1187 NONAME ; int QMediaPlaylist::previousIndex(int) const
	?tr@QMediaControl@@SA?AVQString@@PBD0H@Z @ 1188 NONAME ; class QString QMediaControl::tr(char const *, char const *, int)
	?tr@QImageEncoderControl@@SA?AVQString@@PBD0@Z @ 1189 NONAME ; class QString QImageEncoderControl::tr(char const *, char const *)
	?nativeSizeChanged@QGraphicsVideoItem@@IAEXABVQSizeF@@@Z @ 1190 NONAME ; void QGraphicsVideoItem::nativeSizeChanged(class QSizeF const &)
	??1QSoundEffect@@UAE@XZ @ 1191 NONAME ; QSoundEffect::~QSoundEffect(void)
	?stateChanged@QAbstractAudioInput@@IAEXW4State@QAudio@@@Z @ 1192 NONAME ; void QAbstractAudioInput::stateChanged(enum QAudio::State)
	?media@QMediaPlayer@@QBE?AVQMediaContent@@XZ @ 1193 NONAME ; class QMediaContent QMediaPlayer::media(void) const
	?bind@QMediaImageViewer@@UAE_NPAVQObject@@@Z @ 1194 NONAME ; bool QMediaImageViewer::bind(class QObject *)
	?resolution@QMediaResource@@QBE?AVQSize@@XZ @ 1195 NONAME ; class QSize QMediaResource::resolution(void) const
	?setBitRate@QVideoEncoderSettings@@QAEXH@Z @ 1196 NONAME ; void QVideoEncoderSettings::setBitRate(int)
	?qt_metacast@QMediaControl@@UAEPAXPBD@Z @ 1197 NONAME ; void * QMediaControl::qt_metacast(char const *)
	?sizeHint@QVideoWidget@@UBE?AVQSize@@XZ @ 1198 NONAME ; class QSize QVideoWidget::sizeHint(void) const
	?bandChanged@QRadioTunerControl@@IAEXW4Band@QRadioTuner@@@Z @ 1199 NONAME ; void QRadioTunerControl::bandChanged(enum QRadioTuner::Band)
	?trUtf8@QMetaDataReaderControl@@SA?AVQString@@PBD0H@Z @ 1200 NONAME ; class QString QMetaDataReaderControl::trUtf8(char const *, char const *, int)
	?getStaticMetaObject@QVideoDeviceControl@@SAABUQMetaObject@@XZ @ 1201 NONAME ; struct QMetaObject const & QVideoDeviceControl::getStaticMetaObject(void)
	?stateChanged@QMediaPlayer@@IAEXW4State@1@@Z @ 1202 NONAME ; void QMediaPlayer::stateChanged(enum QMediaPlayer::State)
	??0QMediaPlayerControl@@IAE@PAVQObject@@@Z @ 1203 NONAME ; QMediaPlayerControl::QMediaPlayerControl(class QObject *)
	?availabilityError@QMediaObject@@UBE?AW4AvailabilityError@QtMultimediaKit@@XZ @ 1204 NONAME ; enum QtMultimediaKit::AvailabilityError QMediaObject::availabilityError(void) const
	?tr@QRadioTunerControl@@SA?AVQString@@PBD0H@Z @ 1205 NONAME ; class QString QRadioTunerControl::tr(char const *, char const *, int)
	?getStaticMetaObject@QVideoWidgetControl@@SAABUQMetaObject@@XZ @ 1206 NONAME ; struct QMetaObject const & QVideoWidgetControl::getStaticMetaObject(void)
	??9QMediaServiceProviderHint@@QBE_NABV0@@Z @ 1207 NONAME ; bool QMediaServiceProviderHint::operator!=(class QMediaServiceProviderHint const &) const
	?tr@QRadioTuner@@SA?AVQString@@PBD0@Z @ 1208 NONAME ; class QString QRadioTuner::tr(char const *, char const *)
	?tr@QAudioSystemPlugin@@SA?AVQString@@PBD0H@Z @ 1209 NONAME ; class QString QAudioSystemPlugin::tr(char const *, char const *, int)
	?stateChanged@QMediaImageViewer@@IAEXW4State@1@@Z @ 1210 NONAME ; void QMediaImageViewer::stateChanged(enum QMediaImageViewer::State)
	?next@QMediaPlaylist@@QAEXXZ @ 1211 NONAME ; void QMediaPlaylist::next(void)
	?tr@QMediaPlayerControl@@SA?AVQString@@PBD0@Z @ 1212 NONAME ; class QString QMediaPlayerControl::tr(char const *, char const *)
	??1QMediaPlaylistControl@@UAE@XZ @ 1213 NONAME ; QMediaPlaylistControl::~QMediaPlaylistControl(void)
	??1QAudioOutput@@UAE@XZ @ 1214 NONAME ; QAudioOutput::~QAudioOutput(void)
	?setupMetaData@QMediaObject@@AAEXXZ @ 1215 NONAME ; void QMediaObject::setupMetaData(void)
	??_EQImageEncoderControl@@UAE@I@Z @ 1216 NONAME ; QImageEncoderControl::~QImageEncoderControl(unsigned int)
	??_EQMediaRecorder@@UAE@I@Z @ 1217 NONAME ; QMediaRecorder::~QMediaRecorder(unsigned int)
	?tr@QMetaDataWriterControl@@SA?AVQString@@PBD0@Z @ 1218 NONAME ; class QString QMetaDataWriterControl::tr(char const *, char const *)
	?tr@QAbstractAudioDeviceInfo@@SA?AVQString@@PBD0@Z @ 1219 NONAME ; class QString QAbstractAudioDeviceInfo::tr(char const *, char const *)
	?tr@QMediaRecorder@@SA?AVQString@@PBD0@Z @ 1220 NONAME ; class QString QMediaRecorder::tr(char const *, char const *)
	??1QVideoWidget@@UAE@XZ @ 1221 NONAME ; QVideoWidget::~QVideoWidget(void)
	?tr@QAudioSystemPlugin@@SA?AVQString@@PBD0@Z @ 1222 NONAME ; class QString QAudioSystemPlugin::tr(char const *, char const *)
	?setEncodingMode@QAudioEncoderSettings@@QAEXW4EncodingMode@QtMultimediaKit@@@Z @ 1223 NONAME ; void QAudioEncoderSettings::setEncodingMode(enum QtMultimediaKit::EncodingMode)
	??1QVideoWindowControl@@UAE@XZ @ 1224 NONAME ; QVideoWindowControl::~QVideoWindowControl(void)
	?trUtf8@QMediaServiceProviderPlugin@@SA?AVQString@@PBD0H@Z @ 1225 NONAME ; class QString QMediaServiceProviderPlugin::trUtf8(char const *, char const *, int)
	?currentIndexChanged@QMediaPlaylistControl@@IAEXH@Z @ 1226 NONAME ; void QMediaPlaylistControl::currentIndexChanged(int)
	?suspend@QAudioInput@@QAEXXZ @ 1227 NONAME ; void QAudioInput::suspend(void)
	?mutedChanged@QMediaPlayer@@IAEX_N@Z @ 1228 NONAME ; void QMediaPlayer::mutedChanged(bool)
	?metaObject@QAbstractAudioInput@@UBEPBUQMetaObject@@XZ @ 1229 NONAME ; struct QMetaObject const * QAbstractAudioInput::metaObject(void) const
	?mediaChanged@QMediaPlayer@@IAEXABVQMediaContent@@@Z @ 1230 NONAME ; void QMediaPlayer::mediaChanged(class QMediaContent const &)
	?mediaChanged@QMediaPlaylist@@IAEXHH@Z @ 1231 NONAME ; void QMediaPlaylist::mediaChanged(int, int)
	?tr@QMediaServiceProvider@@SA?AVQString@@PBD0H@Z @ 1232 NONAME ; class QString QMediaServiceProvider::tr(char const *, char const *, int)
	?mutedChanged@QSoundEffect@@IAEXXZ @ 1233 NONAME ; void QSoundEffect::mutedChanged(void)
	?trUtf8@QRadioTuner@@SA?AVQString@@PBD0@Z @ 1234 NONAME ; class QString QRadioTuner::trUtf8(char const *, char const *)
	?getStaticMetaObject@QRadioTuner@@SAABUQMetaObject@@XZ @ 1235 NONAME ; struct QMetaObject const & QRadioTuner::getStaticMetaObject(void)
	?frameRate@QVideoSurfaceFormat@@QBEMXZ @ 1236 NONAME ; float QVideoSurfaceFormat::frameRate(void) const
	?offset@QGraphicsVideoItem@@QBE?AVQPointF@@XZ @ 1237 NONAME ; class QPointF QGraphicsVideoItem::offset(void) const
	?trUtf8@QAudioCaptureSource@@SA?AVQString@@PBD0H@Z @ 1238 NONAME ; class QString QAudioCaptureSource::trUtf8(char const *, char const *, int)
	?removeMedia@QMediaPlaylistProvider@@UAE_NH@Z @ 1239 NONAME ; bool QMediaPlaylistProvider::removeMedia(int)
	??0QVideoEncoderControl@@IAE@PAVQObject@@@Z @ 1240 NONAME ; QVideoEncoderControl::QVideoEncoderControl(class QObject *)
	?setQuality@QImageEncoderSettings@@QAEXW4EncodingQuality@QtMultimediaKit@@@Z @ 1241 NONAME ; void QImageEncoderSettings::setQuality(enum QtMultimediaKit::EncodingQuality)
	?contrastChanged@QVideoWidget@@IAEXH@Z @ 1242 NONAME ; void QVideoWidget::contrastChanged(int)
	?unbind@QMediaObject@@UAEXPAVQObject@@@Z @ 1243 NONAME ; void QMediaObject::unbind(class QObject *)
	?metaObject@QMediaImageViewer@@UBEPBUQMetaObject@@XZ @ 1244 NONAME ; struct QMetaObject const * QMediaImageViewer::metaObject(void) const
	?scanLineDirection@QVideoSurfaceFormat@@QBE?AW4Direction@1@XZ @ 1245 NONAME ; enum QVideoSurfaceFormat::Direction QVideoSurfaceFormat::scanLineDirection(void) const
	?tr@QMediaStreamsControl@@SA?AVQString@@PBD0@Z @ 1246 NONAME ; class QString QMediaStreamsControl::tr(char const *, char const *)
	?getStaticMetaObject@QAbstractVideoSurface@@SAABUQMetaObject@@XZ @ 1247 NONAME ; struct QMetaObject const & QAbstractVideoSurface::getStaticMetaObject(void)
	??0QGraphicsVideoItem@@QAE@PAVQGraphicsItem@@@Z @ 1248 NONAME ; QGraphicsVideoItem::QGraphicsVideoItem(class QGraphicsItem *)
	??1QVideoEncoderControl@@UAE@XZ @ 1249 NONAME ; QVideoEncoderControl::~QVideoEncoderControl(void)
	?removeInterval@QMediaTimeRange@@QAEXABVQMediaTimeInterval@@@Z @ 1250 NONAME ; void QMediaTimeRange::removeInterval(class QMediaTimeInterval const &)
	?insertMedia@QLocalMediaPlaylistProvider@@UAE_NHABVQMediaContent@@@Z @ 1251 NONAME ; bool QLocalMediaPlaylistProvider::insertMedia(int, class QMediaContent const &)
	?currentMedia@QMediaPlaylist@@QBE?AVQMediaContent@@XZ @ 1252 NONAME ; class QMediaContent QMediaPlaylist::currentMedia(void) const
	?setAudioCodec@QMediaResource@@QAEXABVQString@@@Z @ 1253 NONAME ; void QMediaResource::setAudioCodec(class QString const &)
	?activated@QMediaPlaylistNavigator@@IAEXABVQMediaContent@@@Z @ 1254 NONAME ; void QMediaPlaylistNavigator::activated(class QMediaContent const &)
	?trUtf8@QMediaPlaylistNavigator@@SA?AVQString@@PBD0@Z @ 1255 NONAME ; class QString QMediaPlaylistNavigator::trUtf8(char const *, char const *)
	?tr@QMediaControl@@SA?AVQString@@PBD0@Z @ 1256 NONAME ; class QString QMediaControl::tr(char const *, char const *)
	?getStaticMetaObject@QMetaDataWriterControl@@SAABUQMetaObject@@XZ @ 1257 NONAME ; struct QMetaObject const & QMetaDataWriterControl::getStaticMetaObject(void)
	??8QVideoSurfaceFormat@@QBE_NABV0@@Z @ 1258 NONAME ; bool QVideoSurfaceFormat::operator==(class QVideoSurfaceFormat const &) const
	?removeInterval@QMediaTimeRange@@QAEX_J0@Z @ 1259 NONAME ; void QMediaTimeRange::removeInterval(long long, long long)
	?qt_metacast@QAbstractAudioOutput@@UAEPAXPBD@Z @ 1260 NONAME ; void * QAbstractAudioOutput::qt_metacast(char const *)
	??1QVideoSurfaceFormat@@QAE@XZ @ 1261 NONAME ; QVideoSurfaceFormat::~QVideoSurfaceFormat(void)
	?nativeResolutionChanged@QAbstractVideoSurface@@IAEXABVQSize@@@Z @ 1262 NONAME ; void QAbstractVideoSurface::nativeResolutionChanged(class QSize const &)
	??1QCameraControl@@UAE@XZ @ 1263 NONAME ; QCameraControl::~QCameraControl(void)
	?opticalZoomChanged@QCameraFocusControl@@IAEXM@Z @ 1264 NONAME ; void QCameraFocusControl::opticalZoomChanged(float)
	?trUtf8@QCameraFocusControl@@SA?AVQString@@PBD0@Z @ 1265 NONAME ; class QString QCameraFocusControl::trUtf8(char const *, char const *)
	?qt_metacast@QCamera@@UAEPAXPBD@Z @ 1266 NONAME ; void * QCamera::qt_metacast(char const *)
	??4QCameraFocusZone@@QAEAAV0@ABV0@@Z @ 1267 NONAME ; class QCameraFocusZone & QCameraFocusZone::operator=(class QCameraFocusZone const &)
	?errorString@QCameraImageCapture@@QBE?AVQString@@XZ @ 1268 NONAME ; class QString QCameraImageCapture::errorString(void) const
	?readyForCaptureChanged@QCameraImageCaptureControl@@IAEX_N@Z @ 1269 NONAME ; void QCameraImageCaptureControl::readyForCaptureChanged(bool)
	??1QCameraImageCaptureControl@@UAE@XZ @ 1270 NONAME ; QCameraImageCaptureControl::~QCameraImageCaptureControl(void)
	?metaObject@QCameraViewfinder@@UBEPBUQMetaObject@@XZ @ 1271 NONAME ; struct QMetaObject const * QCameraViewfinder::metaObject(void) const
	?saturation@QCameraImageProcessing@@QBEHXZ @ 1272 NONAME ; int QCameraImageProcessing::saturation(void) const
	?trUtf8@QCameraExposure@@SA?AVQString@@PBD0@Z @ 1273 NONAME ; class QString QCameraExposure::trUtf8(char const *, char const *)
	?availableDevices@QCamera@@SA?AV?$QList@VQByteArray@@@@XZ @ 1274 NONAME ; class QList<class QByteArray> QCamera::availableDevices(void)
	?tr@QCameraImageCaptureControl@@SA?AVQString@@PBD0H@Z @ 1275 NONAME ; class QString QCameraImageCaptureControl::tr(char const *, char const *, int)
	?exposure@QCamera@@QBEPAVQCameraExposure@@XZ @ 1276 NONAME ; class QCameraExposure * QCamera::exposure(void) const
	??_EQCameraViewfinder@@UAE@I@Z @ 1277 NONAME ; QCameraViewfinder::~QCameraViewfinder(unsigned int)
	?setViewfinder@QCamera@@QAEXPAVQGraphicsVideoItem@@@Z @ 1278 NONAME ; void QCamera::setViewfinder(class QGraphicsVideoItem *)
	?exposureCompensationChanged@QCameraExposure@@IAEXM@Z @ 1279 NONAME ; void QCameraExposure::exposureCompensationChanged(float)
	?imageSaved@QCameraImageCaptureControl@@IAEXHABVQString@@@Z @ 1280 NONAME ; void QCameraImageCaptureControl::imageSaved(int, class QString const &)
	?isFocusPointModeSupported@QCameraFocus@@QBE_NW4FocusPointMode@1@@Z @ 1281 NONAME ; bool QCameraFocus::isFocusPointModeSupported(enum QCameraFocus::FocusPointMode) const
	?error@QCamera@@QBE?AW4Error@1@XZ @ 1282 NONAME ; enum QCamera::Error QCamera::error(void) const
	?getStaticMetaObject@QCameraLocksControl@@SAABUQMetaObject@@XZ @ 1283 NONAME ; struct QMetaObject const & QCameraLocksControl::getStaticMetaObject(void)
	?metaObject@QCameraImageCaptureControl@@UBEPBUQMetaObject@@XZ @ 1284 NONAME ; struct QMetaObject const * QCameraImageCaptureControl::metaObject(void) const
	?unlock@QCamera@@QAEXV?$QFlags@W4LockType@QCamera@@@@@Z @ 1285 NONAME ; void QCamera::unlock(class QFlags<enum QCamera::LockType>)
	?qt_metacall@QCameraExposure@@UAEHW4Call@QMetaObject@@HPAPAX@Z @ 1286 NONAME ; int QCameraExposure::qt_metacall(enum QMetaObject::Call, int, void * *)
	?staticMetaObject@QCameraLocksControl@@2UQMetaObject@@B @ 1287 NONAME ; struct QMetaObject const QCameraLocksControl::staticMetaObject
	?focus@QCamera@@QBEPAVQCameraFocus@@XZ @ 1288 NONAME ; class QCameraFocus * QCamera::focus(void) const
	?staticMetaObject@QCameraFocus@@2UQMetaObject@@B @ 1289 NONAME ; struct QMetaObject const QCameraFocus::staticMetaObject
	?qt_metacall@QCameraImageProcessing@@UAEHW4Call@QMetaObject@@HPAPAX@Z @ 1290 NONAME ; int QCameraImageProcessing::qt_metacall(enum QMetaObject::Call, int, void * *)
	??0QCameraFocus@@AAE@PAVQCamera@@@Z @ 1291 NONAME ; QCameraFocus::QCameraFocus(class QCamera *)
	?error@QCameraImageCaptureControl@@IAEXHHABVQString@@@Z @ 1292 NONAME ; void QCameraImageCaptureControl::error(int, int, class QString const &)
	?staticMetaObject@QCameraControl@@2UQMetaObject@@B @ 1293 NONAME ; struct QMetaObject const QCameraControl::staticMetaObject
	?isReadyForCapture@QCameraImageCapture@@QBE_NXZ @ 1294 NONAME ; bool QCameraImageCapture::isReadyForCapture(void) const
	?exposureCompensation@QCameraExposure@@QBEMXZ @ 1295 NONAME ; float QCameraExposure::exposureCompensation(void) const
	?getStaticMetaObject@QCameraImageCapture@@SAABUQMetaObject@@XZ @ 1296 NONAME ; struct QMetaObject const & QCameraImageCapture::getStaticMetaObject(void)
	?getStaticMetaObject@QCameraImageCaptureControl@@SAABUQMetaObject@@XZ @ 1297 NONAME ; struct QMetaObject const & QCameraImageCaptureControl::getStaticMetaObject(void)
	?isAvailable@QCameraImageProcessing@@QBE_NXZ @ 1298 NONAME ; bool QCameraImageProcessing::isAvailable(void) const
	?lockStatusChanged@QCamera@@IAEXW4LockType@1@W4LockStatus@1@W4LockChangeReason@1@@Z @ 1299 NONAME ; void QCamera::lockStatusChanged(enum QCamera::LockType, enum QCamera::LockStatus, enum QCamera::LockChangeReason)
	?qt_metacall@QCameraControl@@UAEHW4Call@QMetaObject@@HPAPAX@Z @ 1300 NONAME ; int QCameraControl::qt_metacall(enum QMetaObject::Call, int, void * *)
	?qt_metacast@QCameraFlashControl@@UAEPAXPBD@Z @ 1301 NONAME ; void * QCameraFlashControl::qt_metacast(char const *)
	??1QCamera@@UAE@XZ @ 1302 NONAME ; QCamera::~QCamera(void)
	??0QCameraViewfinder@@QAE@PAVQWidget@@@Z @ 1303 NONAME ; QCameraViewfinder::QCameraViewfinder(class QWidget *)
	??1QCameraExposureControl@@UAE@XZ @ 1304 NONAME ; QCameraExposureControl::~QCameraExposureControl(void)
	?exposureParameterChanged@QCameraExposureControl@@IAEXH@Z @ 1305 NONAME ; void QCameraExposureControl::exposureParameterChanged(int)
	?tr@QCameraExposureControl@@SA?AVQString@@PBD0@Z @ 1306 NONAME ; class QString QCameraExposureControl::tr(char const *, char const *)
	?d_func@QCameraImageCapture@@ABEPBVQCameraImageCapturePrivate@@XZ @ 1307 NONAME ; class QCameraImageCapturePrivate const * QCameraImageCapture::d_func(void) const
	??9QCameraFocusZone@@QBE_NABV0@@Z @ 1308 NONAME ; bool QCameraFocusZone::operator!=(class QCameraFocusZone const &) const
	??1QCameraFocusControl@@UAE@XZ @ 1309 NONAME ; QCameraFocusControl::~QCameraFocusControl(void)
	?setContrast@QCameraImageProcessing@@QAEXH@Z @ 1310 NONAME ; void QCameraImageProcessing::setContrast(int)
	?error@QCameraImageCapture@@IAEXHW4Error@1@ABVQString@@@Z @ 1311 NONAME ; void QCameraImageCapture::error(int, enum QCameraImageCapture::Error, class QString const &)
	?encodingSettings@QCameraImageCapture@@QBE?AVQImageEncoderSettings@@XZ @ 1312 NONAME ; class QImageEncoderSettings QCameraImageCapture::encodingSettings(void) const
	?opticalZoom@QCameraFocus@@QBEMXZ @ 1313 NONAME ; float QCameraFocus::opticalZoom(void) const
	?setCaptureMode@QCamera@@QAEXW4CaptureMode@1@@Z @ 1314 NONAME ; void QCamera::setCaptureMode(enum QCamera::CaptureMode)
	?d_func@QCameraFocus@@AAEPAVQCameraFocusPrivate@@XZ @ 1315 NONAME ; class QCameraFocusPrivate * QCameraFocus::d_func(void)
	?metaObject@QCameraExposureControl@@UBEPBUQMetaObject@@XZ @ 1316 NONAME ; struct QMetaObject const * QCameraExposureControl::metaObject(void) const
	?trUtf8@QCameraFocusControl@@SA?AVQString@@PBD0H@Z @ 1317 NONAME ; class QString QCameraFocusControl::trUtf8(char const *, char const *, int)
	??_EQCameraLocksControl@@UAE@I@Z @ 1318 NONAME ; QCameraLocksControl::~QCameraLocksControl(unsigned int)
	?trUtf8@QCameraFlashControl@@SA?AVQString@@PBD0H@Z @ 1319 NONAME ; class QString QCameraFlashControl::trUtf8(char const *, char const *, int)
	?tr@QCameraImageCapture@@SA?AVQString@@PBD0H@Z @ 1320 NONAME ; class QString QCameraImageCapture::tr(char const *, char const *, int)
	?tr@QCameraImageProcessing@@SA?AVQString@@PBD0@Z @ 1321 NONAME ; class QString QCameraImageProcessing::tr(char const *, char const *)
	?trUtf8@QCameraImageProcessingControl@@SA?AVQString@@PBD0H@Z @ 1322 NONAME ; class QString QCameraImageProcessingControl::trUtf8(char const *, char const *, int)
	?getStaticMetaObject@QCameraFocusControl@@SAABUQMetaObject@@XZ @ 1323 NONAME ; struct QMetaObject const & QCameraFocusControl::getStaticMetaObject(void)
	?getStaticMetaObject@QCameraImageProcessingControl@@SAABUQMetaObject@@XZ @ 1324 NONAME ; struct QMetaObject const & QCameraImageProcessingControl::getStaticMetaObject(void)
	?trUtf8@QCameraImageCaptureControl@@SA?AVQString@@PBD0@Z @ 1325 NONAME ; class QString QCameraImageCaptureControl::trUtf8(char const *, char const *)
	?searchAndLock@QCamera@@QAEXXZ @ 1326 NONAME ; void QCamera::searchAndLock(void)
	?getStaticMetaObject@QCameraExposureControl@@SAABUQMetaObject@@XZ @ 1327 NONAME ; struct QMetaObject const & QCameraExposureControl::getStaticMetaObject(void)
	?contrast@QCameraImageProcessing@@QBEHXZ @ 1328 NONAME ; int QCameraImageProcessing::contrast(void) const
	??_EQCameraImageProcessingControl@@UAE@I@Z @ 1329 NONAME ; QCameraImageProcessingControl::~QCameraImageProcessingControl(unsigned int)
	??_EQCameraControl@@UAE@I@Z @ 1330 NONAME ; QCameraControl::~QCameraControl(unsigned int)
	?staticMetaObject@QCameraFocusControl@@2UQMetaObject@@B @ 1331 NONAME ; struct QMetaObject const QCameraFocusControl::staticMetaObject
	??0QCameraFocusControl@@IAE@PAVQObject@@@Z @ 1332 NONAME ; QCameraFocusControl::QCameraFocusControl(class QObject *)
	?setAutoIsoSensitivity@QCameraExposure@@QAEXXZ @ 1333 NONAME ; void QCameraExposure::setAutoIsoSensitivity(void)
	?qt_metacall@QCameraLocksControl@@UAEHW4Call@QMetaObject@@HPAPAX@Z @ 1334 NONAME ; int QCameraLocksControl::qt_metacall(enum QMetaObject::Call, int, void * *)
	?trUtf8@QCameraFlashControl@@SA?AVQString@@PBD0@Z @ 1335 NONAME ; class QString QCameraFlashControl::trUtf8(char const *, char const *)
	?getStaticMetaObject@QCameraImageProcessing@@SAABUQMetaObject@@XZ @ 1336 NONAME ; struct QMetaObject const & QCameraImageProcessing::getStaticMetaObject(void)
	??0QCameraLocksControl@@IAE@PAVQObject@@@Z @ 1337 NONAME ; QCameraLocksControl::QCameraLocksControl(class QObject *)
	?stop@QCamera@@QAEXXZ @ 1338 NONAME ; void QCamera::stop(void)
	?supportedShutterSpeeds@QCameraExposure@@QBE?AV?$QList@M@@PA_N@Z @ 1339 NONAME ; class QList<float> QCameraExposure::supportedShutterSpeeds(bool *) const
	?flashReady@QCameraExposure@@IAEX_N@Z @ 1340 NONAME ; void QCameraExposure::flashReady(bool)
	?tr@QCameraViewfinder@@SA?AVQString@@PBD0@Z @ 1341 NONAME ; class QString QCameraViewfinder::tr(char const *, char const *)
	?whiteBalanceMode@QCameraImageProcessing@@QBE?AW4WhiteBalanceMode@1@XZ @ 1342 NONAME ; enum QCameraImageProcessing::WhiteBalanceMode QCameraImageProcessing::whiteBalanceMode(void) const
	?qt_metacast@QCameraExposure@@UAEPAXPBD@Z @ 1343 NONAME ; void * QCameraExposure::qt_metacast(char const *)
	?flashMode@QCameraExposure@@QBE?AV?$QFlags@W4FlashMode@QCameraExposure@@@@XZ @ 1344 NONAME ; class QFlags<enum QCameraExposure::FlashMode> QCameraExposure::flashMode(void) const
	??1QCameraViewfinder@@UAE@XZ @ 1345 NONAME ; QCameraViewfinder::~QCameraViewfinder(void)
	?manualWhiteBalance@QCameraImageProcessing@@QBEHXZ @ 1346 NONAME ; int QCameraImageProcessing::manualWhiteBalance(void) const
	?isAvailable@QCameraFocus@@QBE_NXZ @ 1347 NONAME ; bool QCameraFocus::isAvailable(void) const
	?readyForCaptureChanged@QCameraImageCapture@@IAEX_N@Z @ 1348 NONAME ; void QCameraImageCapture::readyForCaptureChanged(bool)
	?metaObject@QCameraExposure@@UBEPBUQMetaObject@@XZ @ 1349 NONAME ; struct QMetaObject const * QCameraExposure::metaObject(void) const
	?d_func@QCamera@@ABEPBVQCameraPrivate@@XZ @ 1350 NONAME ; class QCameraPrivate const * QCamera::d_func(void) const
	?opticalZoomChanged@QCameraFocus@@IAEXM@Z @ 1351 NONAME ; void QCameraFocus::opticalZoomChanged(float)
	?isValid@QCameraFocusZone@@QBE_NXZ @ 1352 NONAME ; bool QCameraFocusZone::isValid(void) const
	?tr@QCameraFocus@@SA?AVQString@@PBD0@Z @ 1353 NONAME ; class QString QCameraFocus::tr(char const *, char const *)
	?staticMetaObject@QCameraExposure@@2UQMetaObject@@B @ 1354 NONAME ; struct QMetaObject const QCameraExposure::staticMetaObject
	?setEncodingSettings@QCameraImageCapture@@QAEXABVQImageEncoderSettings@@@Z @ 1355 NONAME ; void QCameraImageCapture::setEncodingSettings(class QImageEncoderSettings const &)
	?metaObject@QCameraImageCapture@@UBEPBUQMetaObject@@XZ @ 1356 NONAME ; struct QMetaObject const * QCameraImageCapture::metaObject(void) const
	?load@QCamera@@QAEXXZ @ 1357 NONAME ; void QCamera::load(void)
	??0QVideoWidget@@IAE@AAVQVideoWidgetPrivate@@PAVQWidget@@@Z @ 1358 NONAME ; QVideoWidget::QVideoWidget(class QVideoWidgetPrivate &, class QWidget *)
	?setFocusPointMode@QCameraFocus@@QAEXW4FocusPointMode@1@@Z @ 1359 NONAME ; void QCameraFocus::setFocusPointMode(enum QCameraFocus::FocusPointMode)
	?tr@QCameraImageProcessing@@SA?AVQString@@PBD0H@Z @ 1360 NONAME ; class QString QCameraImageProcessing::tr(char const *, char const *, int)
	?staticMetaObject@QCameraFlashControl@@2UQMetaObject@@B @ 1361 NONAME ; struct QMetaObject const QCameraFlashControl::staticMetaObject
	?setManualShutterSpeed@QCameraExposure@@QAEXM@Z @ 1362 NONAME ; void QCameraExposure::setManualShutterSpeed(float)
	?mediaObject@QCameraViewfinder@@UBEPAVQMediaObject@@XZ @ 1363 NONAME ; class QMediaObject * QCameraViewfinder::mediaObject(void) const
	?setAutoAperture@QCameraExposure@@QAEXXZ @ 1364 NONAME ; void QCameraExposure::setAutoAperture(void)
	?tr@QCameraExposure@@SA?AVQString@@PBD0@Z @ 1365 NONAME ; class QString QCameraExposure::tr(char const *, char const *)
	?flashReady@QCameraExposureControl@@IAEX_N@Z @ 1366 NONAME ; void QCameraExposureControl::flashReady(bool)
	??1QCameraImageProcessingControl@@UAE@XZ @ 1367 NONAME ; QCameraImageProcessingControl::~QCameraImageProcessingControl(void)
	??1QCameraFocus@@EAE@XZ @ 1368 NONAME ; QCameraFocus::~QCameraFocus(void)
	?statusChanged@QCamera@@IAEXW4Status@1@@Z @ 1369 NONAME ; void QCamera::statusChanged(enum QCamera::Status)
	?apertureRangeChanged@QCameraExposure@@IAEXXZ @ 1370 NONAME ; void QCameraExposure::apertureRangeChanged(void)
	?getStaticMetaObject@QCameraFocus@@SAABUQMetaObject@@XZ @ 1371 NONAME ; struct QMetaObject const & QCameraFocus::getStaticMetaObject(void)
	??0QCameraImageProcessingControl@@IAE@PAVQObject@@@Z @ 1372 NONAME ; QCameraImageProcessingControl::QCameraImageProcessingControl(class QObject *)
	?setWhiteBalanceMode@QCameraImageProcessing@@QAEXW4WhiteBalanceMode@1@@Z @ 1373 NONAME ; void QCameraImageProcessing::setWhiteBalanceMode(enum QCameraImageProcessing::WhiteBalanceMode)
	??0QCamera@@QAE@ABVQByteArray@@PAVQObject@@@Z @ 1374 NONAME ; QCamera::QCamera(class QByteArray const &, class QObject *)
	?focusZonesChanged@QCameraFocusControl@@IAEXXZ @ 1375 NONAME ; void QCameraFocusControl::focusZonesChanged(void)
	?qt_metacall@QCameraImageCapture@@UAEHW4Call@QMetaObject@@HPAPAX@Z @ 1376 NONAME ; int QCameraImageCapture::qt_metacall(enum QMetaObject::Call, int, void * *)
	?setStatus@QCameraFocusZone@@QAEXW4FocusZoneStatus@1@@Z @ 1377 NONAME ; void QCameraFocusZone::setStatus(enum QCameraFocusZone::FocusZoneStatus)
	?qt_metacall@QCameraFocusControl@@UAEHW4Call@QMetaObject@@HPAPAX@Z @ 1378 NONAME ; int QCameraFocusControl::qt_metacall(enum QMetaObject::Call, int, void * *)
	?isFlashModeSupported@QCameraExposure@@QBE_NV?$QFlags@W4FlashMode@QCameraExposure@@@@@Z @ 1379 NONAME ; bool QCameraExposure::isFlashModeSupported(class QFlags<enum QCameraExposure::FlashMode>) const
	?imageSaved@QCameraImageCapture@@IAEXHABVQString@@@Z @ 1380 NONAME ; void QCameraImageCapture::imageSaved(int, class QString const &)
	?captureModeChanged@QCamera@@IAEXW4CaptureMode@1@@Z @ 1381 NONAME ; void QCamera::captureModeChanged(enum QCamera::CaptureMode)
	?getStaticMetaObject@QCameraFlashControl@@SAABUQMetaObject@@XZ @ 1382 NONAME ; struct QMetaObject const & QCameraFlashControl::getStaticMetaObject(void)
	?focusPointMode@QCameraFocus@@QBE?AW4FocusPointMode@1@XZ @ 1383 NONAME ; enum QCameraFocus::FocusPointMode QCameraFocus::focusPointMode(void) const
	?digitalZoom@QCameraFocus@@QBEMXZ @ 1384 NONAME ; float QCameraFocus::digitalZoom(void) const
	??8QCameraFocusZone@@QBE_NABV0@@Z @ 1385 NONAME ; bool QCameraFocusZone::operator==(class QCameraFocusZone const &) const
	?sharpeningLevel@QCameraImageProcessing@@QBEHXZ @ 1386 NONAME ; int QCameraImageProcessing::sharpeningLevel(void) const
	?tr@QCamera@@SA?AVQString@@PBD0H@Z @ 1387 NONAME ; class QString QCamera::tr(char const *, char const *, int)
	?setManualIsoSensitivity@QCameraExposure@@QAEXH@Z @ 1388 NONAME ; void QCameraExposure::setManualIsoSensitivity(int)
	?setManualWhiteBalance@QCameraImageProcessing@@QAEXH@Z @ 1389 NONAME ; void QCameraImageProcessing::setManualWhiteBalance(int)
	?isCaptureModeSupported@QCamera@@QBE_NW4CaptureMode@1@@Z @ 1390 NONAME ; bool QCamera::isCaptureModeSupported(enum QCamera::CaptureMode) const
	??0QCameraFlashControl@@IAE@PAVQObject@@@Z @ 1391 NONAME ; QCameraFlashControl::QCameraFlashControl(class QObject *)
	?focusZones@QCameraFocus@@QBE?AV?$QList@VQCameraFocusZone@@@@XZ @ 1392 NONAME ; class QList<class QCameraFocusZone> QCameraFocus::focusZones(void) const
	?shutterSpeed@QCameraExposure@@QBEMXZ @ 1393 NONAME ; float QCameraExposure::shutterSpeed(void) const
	?setManualAperture@QCameraExposure@@QAEXM@Z @ 1394 NONAME ; void QCameraExposure::setManualAperture(float)
	?setVideoOutput@QMediaImageViewer@@QAEXPAVQVideoWidget@@@Z @ 1395 NONAME ; void QMediaImageViewer::setVideoOutput(class QVideoWidget *)
	?trUtf8@QCameraLocksControl@@SA?AVQString@@PBD0H@Z @ 1396 NONAME ; class QString QCameraLocksControl::trUtf8(char const *, char const *, int)
	??1QCameraImageCapture@@UAE@XZ @ 1397 NONAME ; QCameraImageCapture::~QCameraImageCapture(void)
	?focusMode@QCameraFocus@@QBE?AW4FocusMode@1@XZ @ 1398 NONAME ; enum QCameraFocus::FocusMode QCameraFocus::focusMode(void) const
	??1QCameraImageProcessing@@EAE@XZ @ 1399 NONAME ; QCameraImageProcessing::~QCameraImageProcessing(void)
	?setFlashMode@QCameraExposure@@QAEXV?$QFlags@W4FlashMode@QCameraExposure@@@@@Z @ 1400 NONAME ; void QCameraExposure::setFlashMode(class QFlags<enum QCameraExposure::FlashMode>)
	?trUtf8@QCameraImageProcessingControl@@SA?AVQString@@PBD0@Z @ 1401 NONAME ; class QString QCameraImageProcessingControl::trUtf8(char const *, char const *)
	?lockStatusChanged@QCameraLocksControl@@IAEXW4LockType@QCamera@@W4LockStatus@3@W4LockChangeReason@3@@Z @ 1402 NONAME ; void QCameraLocksControl::lockStatusChanged(enum QCamera::LockType, enum QCamera::LockStatus, enum QCamera::LockChangeReason)
	??_EQCameraFocusControl@@UAE@I@Z @ 1403 NONAME ; QCameraFocusControl::~QCameraFocusControl(unsigned int)
	?lockStatus@QCamera@@QBE?AW4LockStatus@1@XZ @ 1404 NONAME ; enum QCamera::LockStatus QCamera::lockStatus(void) const
	?imageCaptured@QCameraImageCaptureControl@@IAEXHABVQImage@@@Z @ 1405 NONAME ; void QCameraImageCaptureControl::imageCaptured(int, class QImage const &)
	?aperture@QCameraExposure@@QBEMXZ @ 1406 NONAME ; float QCameraExposure::aperture(void) const
	?staticMetaObject@QCameraImageCaptureControl@@2UQMetaObject@@B @ 1407 NONAME ; struct QMetaObject const QCameraImageCaptureControl::staticMetaObject
	?isWhiteBalanceModeSupported@QCameraImageProcessing@@QBE_NW4WhiteBalanceMode@1@@Z @ 1408 NONAME ; bool QCameraImageProcessing::isWhiteBalanceModeSupported(enum QCameraImageProcessing::WhiteBalanceMode) const
	?maximumOpticalZoom@QCameraFocus@@QBEMXZ @ 1409 NONAME ; float QCameraFocus::maximumOpticalZoom(void) const
	?qt_metacast@QCameraFocus@@UAEPAXPBD@Z @ 1410 NONAME ; void * QCameraFocus::qt_metacast(char const *)
	?imageProcessing@QCamera@@QBEPAVQCameraImageProcessing@@XZ @ 1411 NONAME ; class QCameraImageProcessing * QCamera::imageProcessing(void) const
	?digitalZoomChanged@QCameraFocusControl@@IAEXM@Z @ 1412 NONAME ; void QCameraFocusControl::digitalZoomChanged(float)
	??0QCameraExposureControl@@IAE@PAVQObject@@@Z @ 1413 NONAME ; QCameraExposureControl::QCameraExposureControl(class QObject *)
	?setMediaObject@QCameraImageCapture@@MAE_NPAVQMediaObject@@@Z @ 1414 NONAME ; bool QCameraImageCapture::setMediaObject(class QMediaObject *)
	?getStaticMetaObject@QCameraControl@@SAABUQMetaObject@@XZ @ 1415 NONAME ; struct QMetaObject const & QCameraControl::getStaticMetaObject(void)
	?setFocusMode@QCameraFocus@@QAEXW4FocusMode@1@@Z @ 1416 NONAME ; void QCameraFocus::setFocusMode(enum QCameraFocus::FocusMode)
	?isoSensitivityChanged@QCameraExposure@@IAEXH@Z @ 1417 NONAME ; void QCameraExposure::isoSensitivityChanged(int)
	?supportedImageCodecs@QCameraImageCapture@@QBE?AVQStringList@@XZ @ 1418 NONAME ; class QStringList QCameraImageCapture::supportedImageCodecs(void) const
	?imageCaptured@QCameraImageCapture@@IAEXHABVQImage@@@Z @ 1419 NONAME ; void QCameraImageCapture::imageCaptured(int, class QImage const &)
	?qt_metacast@QCameraLocksControl@@UAEPAXPBD@Z @ 1420 NONAME ; void * QCameraLocksControl::qt_metacast(char const *)
	?qt_metacast@QCameraFocusControl@@UAEPAXPBD@Z @ 1421 NONAME ; void * QCameraFocusControl::qt_metacast(char const *)
	?trUtf8@QCameraImageCaptureControl@@SA?AVQString@@PBD0H@Z @ 1422 NONAME ; class QString QCameraImageCaptureControl::trUtf8(char const *, char const *, int)
	?trUtf8@QCameraViewfinder@@SA?AVQString@@PBD0@Z @ 1423 NONAME ; class QString QCameraViewfinder::trUtf8(char const *, char const *)
	?getStaticMetaObject@QCameraExposure@@SAABUQMetaObject@@XZ @ 1424 NONAME ; struct QMetaObject const & QCameraExposure::getStaticMetaObject(void)
	?trUtf8@QCamera@@SA?AVQString@@PBD0H@Z @ 1425 NONAME ; class QString QCamera::trUtf8(char const *, char const *, int)
	?tr@QCameraExposureControl@@SA?AVQString@@PBD0H@Z @ 1426 NONAME ; class QString QCameraExposureControl::tr(char const *, char const *, int)
	?trUtf8@QCameraFocus@@SA?AVQString@@PBD0H@Z @ 1427 NONAME ; class QString QCameraFocus::trUtf8(char const *, char const *, int)
	?playlist@QMediaImageViewer@@QBEPAVQMediaPlaylist@@XZ @ 1428 NONAME ; class QMediaPlaylist * QMediaImageViewer::playlist(void) const
	?qt_metacall@QCameraViewfinder@@UAEHW4Call@QMetaObject@@HPAPAX@Z @ 1429 NONAME ; int QCameraViewfinder::qt_metacall(enum QMetaObject::Call, int, void * *)
	?unlock@QCamera@@QAEXXZ @ 1430 NONAME ; void QCamera::unlock(void)
	?supportedIsoSensitivities@QCameraExposure@@QBE?AV?$QList@H@@PA_N@Z @ 1431 NONAME ; class QList<int> QCameraExposure::supportedIsoSensitivities(bool *) const
	?staticMetaObject@QCameraImageProcessing@@2UQMetaObject@@B @ 1432 NONAME ; struct QMetaObject const QCameraImageProcessing::staticMetaObject
	?staticMetaObject@QCameraViewfinder@@2UQMetaObject@@B @ 1433 NONAME ; struct QMetaObject const QCameraViewfinder::staticMetaObject
	?d_func@QCameraImageProcessing@@ABEPBVQCameraImageProcessingPrivate@@XZ @ 1434 NONAME ; class QCameraImageProcessingPrivate const * QCameraImageProcessing::d_func(void) const
	?isAvailable@QCameraImageCapture@@QBE_NXZ @ 1435 NONAME ; bool QCameraImageCapture::isAvailable(void) const
	?setExposureCompensation@QCameraExposure@@QAEXM@Z @ 1436 NONAME ; void QCameraExposure::setExposureCompensation(float)
	??1QCameraExposure@@EAE@XZ @ 1437 NONAME ; QCameraExposure::~QCameraExposure(void)
	?isAvailable@QCameraExposure@@QBE_NXZ @ 1438 NONAME ; bool QCameraExposure::isAvailable(void) const
	?qt_metacall@QCameraImageProcessingControl@@UAEHW4Call@QMetaObject@@HPAPAX@Z @ 1439 NONAME ; int QCameraImageProcessingControl::qt_metacall(enum QMetaObject::Call, int, void * *)
	?setDenoisingLevel@QCameraImageProcessing@@QAEXH@Z @ 1440 NONAME ; void QCameraImageProcessing::setDenoisingLevel(int)
	?tr@QCameraFocusControl@@SA?AVQString@@PBD0H@Z @ 1441 NONAME ; class QString QCameraFocusControl::tr(char const *, char const *, int)
	?tr@QCameraFlashControl@@SA?AVQString@@PBD0H@Z @ 1442 NONAME ; class QString QCameraFlashControl::tr(char const *, char const *, int)
	?area@QCameraFocusZone@@QBE?AVQRectF@@XZ @ 1443 NONAME ; class QRectF QCameraFocusZone::area(void) const
	??_EQCameraImageCapture@@UAE@I@Z @ 1444 NONAME ; QCameraImageCapture::~QCameraImageCapture(unsigned int)
	?status@QCamera@@QBE?AW4Status@1@XZ @ 1445 NONAME ; enum QCamera::Status QCamera::status(void) const
	?isSharpeningSupported@QCameraImageProcessing@@QBE_NXZ @ 1446 NONAME ; bool QCameraImageProcessing::isSharpeningSupported(void) const
	?mediaObject@QCameraImageCapture@@UBEPAVQMediaObject@@XZ @ 1447 NONAME ; class QMediaObject * QCameraImageCapture::mediaObject(void) const
	?trUtf8@QCameraViewfinder@@SA?AVQString@@PBD0H@Z @ 1448 NONAME ; class QString QCameraViewfinder::trUtf8(char const *, char const *, int)
	?d_func@QCameraImageCapture@@AAEPAVQCameraImageCapturePrivate@@XZ @ 1449 NONAME ; class QCameraImageCapturePrivate * QCameraImageCapture::d_func(void)
	?status@QCameraFocusZone@@QBE?AW4FocusZoneStatus@1@XZ @ 1450 NONAME ; enum QCameraFocusZone::FocusZoneStatus QCameraFocusZone::status(void) const
	?error@QCameraControl@@IAEXHABVQString@@@Z @ 1451 NONAME ; void QCameraControl::error(int, class QString const &)
	?metaObject@QCameraImageProcessingControl@@UBEPBUQMetaObject@@XZ @ 1452 NONAME ; struct QMetaObject const * QCameraImageProcessingControl::metaObject(void) const
	?qt_metacall@QCameraFocus@@UAEHW4Call@QMetaObject@@HPAPAX@Z @ 1453 NONAME ; int QCameraFocus::qt_metacall(enum QMetaObject::Call, int, void * *)
	??0QCameraFocusZone@@QAE@ABV0@@Z @ 1454 NONAME ; QCameraFocusZone::QCameraFocusZone(class QCameraFocusZone const &)
	?setSharpeningLevel@QCameraImageProcessing@@QAEXH@Z @ 1455 NONAME ; void QCameraImageProcessing::setSharpeningLevel(int)
	?qt_metacast@QCameraImageCapture@@UAEPAXPBD@Z @ 1456 NONAME ; void * QCameraImageCapture::qt_metacast(char const *)
	?tr@QCameraImageProcessingControl@@SA?AVQString@@PBD0H@Z @ 1457 NONAME ; class QString QCameraImageProcessingControl::tr(char const *, char const *, int)
	?captureMode@QCamera@@QBE?AW4CaptureMode@1@XZ @ 1458 NONAME ; enum QCamera::CaptureMode QCamera::captureMode(void) const
	?isDenoisingSupported@QCameraImageProcessing@@QBE_NXZ @ 1459 NONAME ; bool QCameraImageProcessing::isDenoisingSupported(void) const
	?shutterSpeedRangeChanged@QCameraExposure@@IAEXXZ @ 1460 NONAME ; void QCameraExposure::shutterSpeedRangeChanged(void)
	??0QCameraFocusZone@@QAE@ABVQRectF@@W4FocusZoneStatus@0@@Z @ 1461 NONAME ; QCameraFocusZone::QCameraFocusZone(class QRectF const &, enum QCameraFocusZone::FocusZoneStatus)
	?qt_metacast@QCameraControl@@UAEPAXPBD@Z @ 1462 NONAME ; void * QCameraControl::qt_metacast(char const *)
	?statusChanged@QCameraControl@@IAEXW4Status@QCamera@@@Z @ 1463 NONAME ; void QCameraControl::statusChanged(enum QCamera::Status)
	?zoomTo@QCameraFocus@@QAEXMM@Z @ 1464 NONAME ; void QCameraFocus::zoomTo(float, float)
	??1QCameraFocusZone@@QAE@XZ @ 1465 NONAME ; QCameraFocusZone::~QCameraFocusZone(void)
	?d_func@QCameraExposure@@ABEPBVQCameraExposurePrivate@@XZ @ 1466 NONAME ; class QCameraExposurePrivate const * QCameraExposure::d_func(void) const
	?tr@QCameraViewfinder@@SA?AVQString@@PBD0H@Z @ 1467 NONAME ; class QString QCameraViewfinder::tr(char const *, char const *, int)
	?qt_metacall@QCamera@@UAEHW4Call@QMetaObject@@HPAPAX@Z @ 1468 NONAME ; int QCamera::qt_metacall(enum QMetaObject::Call, int, void * *)
	?availabilityError@QCameraImageCapture@@QBE?AW4AvailabilityError@QtMultimediaKit@@XZ @ 1469 NONAME ; enum QtMultimediaKit::AvailabilityError QCameraImageCapture::availabilityError(void) const
	??_EQCamera@@UAE@I@Z @ 1470 NONAME ; QCamera::~QCamera(unsigned int)
	?trUtf8@QCameraControl@@SA?AVQString@@PBD0H@Z @ 1471 NONAME ; class QString QCameraControl::trUtf8(char const *, char const *, int)
	?metaObject@QCameraFocusControl@@UBEPBUQMetaObject@@XZ @ 1472 NONAME ; struct QMetaObject const * QCameraFocusControl::metaObject(void) const
	?metaObject@QCameraFlashControl@@UBEPBUQMetaObject@@XZ @ 1473 NONAME ; struct QMetaObject const * QCameraFlashControl::metaObject(void) const
	?maximumDigitalZoom@QCameraFocus@@QBEMXZ @ 1474 NONAME ; float QCameraFocus::maximumDigitalZoom(void) const
	?error@QCamera@@IAEXW4Error@1@@Z @ 1475 NONAME ; void QCamera::error(enum QCamera::Error)
	?isFocusModeSupported@QCameraFocus@@QBE_NW4FocusMode@1@@Z @ 1476 NONAME ; bool QCameraFocus::isFocusModeSupported(enum QCameraFocus::FocusMode) const
	?locked@QCamera@@IAEXXZ @ 1477 NONAME ; void QCamera::locked(void)
	?supportedResolutions@QCameraImageCapture@@QBE?AV?$QList@VQSize@@@@ABVQImageEncoderSettings@@PA_N@Z @ 1478 NONAME ; class QList<class QSize> QCameraImageCapture::supportedResolutions(class QImageEncoderSettings const &, bool *) const
	?qt_metacall@QCameraImageCaptureControl@@UAEHW4Call@QMetaObject@@HPAPAX@Z @ 1479 NONAME ; int QCameraImageCaptureControl::qt_metacall(enum QMetaObject::Call, int, void * *)
	?tr@QCameraLocksControl@@SA?AVQString@@PBD0@Z @ 1480 NONAME ; class QString QCameraLocksControl::tr(char const *, char const *)
	?stateChanged@QCamera@@IAEXW4State@1@@Z @ 1481 NONAME ; void QCamera::stateChanged(enum QCamera::State)
	?lockStatus@QCamera@@QBE?AW4LockStatus@1@W4LockType@1@@Z @ 1482 NONAME ; enum QCamera::LockStatus QCamera::lockStatus(enum QCamera::LockType) const
	?exposureMode@QCameraExposure@@QBE?AW4ExposureMode@1@XZ @ 1483 NONAME ; enum QCameraExposure::ExposureMode QCameraExposure::exposureMode(void) const
	??1QCameraLocksControl@@UAE@XZ @ 1484 NONAME ; QCameraLocksControl::~QCameraLocksControl(void)
	?requestedLocks@QCamera@@QBE?AV?$QFlags@W4LockType@QCamera@@@@XZ @ 1485 NONAME ; class QFlags<enum QCamera::LockType> QCamera::requestedLocks(void) const
	?trUtf8@QCameraControl@@SA?AVQString@@PBD0@Z @ 1486 NONAME ; class QString QCameraControl::trUtf8(char const *, char const *)
	?supportedLocks@QCamera@@QBE?AV?$QFlags@W4LockType@QCamera@@@@XZ @ 1487 NONAME ; class QFlags<enum QCamera::LockType> QCamera::supportedLocks(void) const
	??0QCameraImageCapture@@QAE@PAVQMediaObject@@PAVQObject@@@Z @ 1488 NONAME ; QCameraImageCapture::QCameraImageCapture(class QMediaObject *, class QObject *)
	?d_func@QCameraImageProcessing@@AAEPAVQCameraImageProcessingPrivate@@XZ @ 1489 NONAME ; class QCameraImageProcessingPrivate * QCameraImageProcessing::d_func(void)
	?isMeteringModeSupported@QCameraExposure@@QBE_NW4MeteringMode@1@@Z @ 1490 NONAME ; bool QCameraExposure::isMeteringModeSupported(enum QCameraExposure::MeteringMode) const
	?start@QCamera@@QAEXXZ @ 1491 NONAME ; void QCamera::start(void)
	?staticMetaObject@QCamera@@2UQMetaObject@@B @ 1492 NONAME ; struct QMetaObject const QCamera::staticMetaObject
	??0QCamera@@QAE@PAVQObject@@PAVQMediaServiceProvider@@@Z @ 1493 NONAME ; QCamera::QCamera(class QObject *, class QMediaServiceProvider *)
	?tr@QCameraImageCapture@@SA?AVQString@@PBD0@Z @ 1494 NONAME ; class QString QCameraImageCapture::tr(char const *, char const *)
	?trUtf8@QCameraExposure@@SA?AVQString@@PBD0H@Z @ 1495 NONAME ; class QString QCameraExposure::trUtf8(char const *, char const *, int)
	?staticMetaObject@QCameraImageProcessingControl@@2UQMetaObject@@B @ 1496 NONAME ; struct QMetaObject const QCameraImageProcessingControl::staticMetaObject
	?lockStatusChanged@QCamera@@IAEXW4LockStatus@1@W4LockChangeReason@1@@Z @ 1497 NONAME ; void QCamera::lockStatusChanged(enum QCamera::LockStatus, enum QCamera::LockChangeReason)
	?setAutoShutterSpeed@QCameraExposure@@QAEXXZ @ 1498 NONAME ; void QCameraExposure::setAutoShutterSpeed(void)
	?captureModeChanged@QCameraControl@@IAEXW4CaptureMode@QCamera@@@Z @ 1499 NONAME ; void QCameraControl::captureModeChanged(enum QCamera::CaptureMode)
	?trUtf8@QCameraImageProcessing@@SA?AVQString@@PBD0H@Z @ 1500 NONAME ; class QString QCameraImageProcessing::trUtf8(char const *, char const *, int)
	??_EQCameraExposure@@UAE@I@Z @ 1501 NONAME ; QCameraExposure::~QCameraExposure(unsigned int)
	?flashReady@QCameraFlashControl@@IAEX_N@Z @ 1502 NONAME ; void QCameraFlashControl::flashReady(bool)
	??_EQCameraImageProcessing@@UAE@I@Z @ 1503 NONAME ; QCameraImageProcessing::~QCameraImageProcessing(unsigned int)
	?imageExposed@QCameraImageCapture@@IAEXH@Z @ 1504 NONAME ; void QCameraImageCapture::imageExposed(int)
	?deviceDescription@QCamera@@SA?AVQString@@ABVQByteArray@@@Z @ 1505 NONAME ; class QString QCamera::deviceDescription(class QByteArray const &)
	?staticMetaObject@QCameraImageCapture@@2UQMetaObject@@B @ 1506 NONAME ; struct QMetaObject const QCameraImageCapture::staticMetaObject
	?qt_metacast@QCameraExposureControl@@UAEPAXPBD@Z @ 1507 NONAME ; void * QCameraExposureControl::qt_metacast(char const *)
	??0QCameraImageProcessing@@AAE@PAVQCamera@@@Z @ 1508 NONAME ; QCameraImageProcessing::QCameraImageProcessing(class QCamera *)
	?tr@QCameraLocksControl@@SA?AVQString@@PBD0H@Z @ 1509 NONAME ; class QString QCameraLocksControl::tr(char const *, char const *, int)
	?unload@QCamera@@QAEXXZ @ 1510 NONAME ; void QCamera::unload(void)
	?setVideoOutput@QMediaImageViewer@@QAEXPAVQGraphicsVideoItem@@@Z @ 1511 NONAME ; void QMediaImageViewer::setVideoOutput(class QGraphicsVideoItem *)
	?setCustomFocusPoint@QCameraFocus@@QAEXABVQPointF@@@Z @ 1512 NONAME ; void QCameraFocus::setCustomFocusPoint(class QPointF const &)
	?trUtf8@QCameraFocus@@SA?AVQString@@PBD0@Z @ 1513 NONAME ; class QString QCameraFocus::trUtf8(char const *, char const *)
	?qt_metacall@QCameraFlashControl@@UAEHW4Call@QMetaObject@@HPAPAX@Z @ 1514 NONAME ; int QCameraFlashControl::qt_metacall(enum QMetaObject::Call, int, void * *)
	?tr@QCameraFocusControl@@SA?AVQString@@PBD0@Z @ 1515 NONAME ; class QString QCameraFocusControl::tr(char const *, char const *)
	?d_func@QCameraFocus@@ABEPBVQCameraFocusPrivate@@XZ @ 1516 NONAME ; class QCameraFocusPrivate const * QCameraFocus::d_func(void) const
	?getStaticMetaObject@QCamera@@SAABUQMetaObject@@XZ @ 1517 NONAME ; struct QMetaObject const & QCamera::getStaticMetaObject(void)
	?qt_metacast@QCameraViewfinder@@UAEPAXPBD@Z @ 1518 NONAME ; void * QCameraViewfinder::qt_metacast(char const *)
	?trUtf8@QCameraImageCapture@@SA?AVQString@@PBD0H@Z @ 1519 NONAME ; class QString QCameraImageCapture::trUtf8(char const *, char const *, int)
	?tr@QCameraControl@@SA?AVQString@@PBD0@Z @ 1520 NONAME ; class QString QCameraControl::tr(char const *, char const *)
	?apertureChanged@QCameraExposure@@IAEXM@Z @ 1521 NONAME ; void QCameraExposure::apertureChanged(float)
	?d_func@QCamera@@AAEPAVQCameraPrivate@@XZ @ 1522 NONAME ; class QCameraPrivate * QCamera::d_func(void)
	??_EQCameraFocus@@UAE@I@Z @ 1523 NONAME ; QCameraFocus::~QCameraFocus(unsigned int)
	??_EQCameraImageCaptureControl@@UAE@I@Z @ 1524 NONAME ; QCameraImageCaptureControl::~QCameraImageCaptureControl(unsigned int)
	?imageCodecDescription@QCameraImageCapture@@QBE?AVQString@@ABV2@@Z @ 1525 NONAME ; class QString QCameraImageCapture::imageCodecDescription(class QString const &) const
	??_EQCameraExposureControl@@UAE@I@Z @ 1526 NONAME ; QCameraExposureControl::~QCameraExposureControl(unsigned int)
	?setSaturation@QCameraImageProcessing@@QAEXH@Z @ 1527 NONAME ; void QCameraImageProcessing::setSaturation(int)
	?tr@QCameraImageProcessingControl@@SA?AVQString@@PBD0@Z @ 1528 NONAME ; class QString QCameraImageProcessingControl::tr(char const *, char const *)
	?setMeteringMode@QCameraExposure@@QAEXW4MeteringMode@1@@Z @ 1529 NONAME ; void QCameraExposure::setMeteringMode(enum QCameraExposure::MeteringMode)
	?isFlashReady@QCameraExposure@@QBE_NXZ @ 1530 NONAME ; bool QCameraExposure::isFlashReady(void) const
	?denoisingLevel@QCameraImageProcessing@@QBEHXZ @ 1531 NONAME ; int QCameraImageProcessing::denoisingLevel(void) const
	?qt_metacast@QCameraImageProcessing@@UAEPAXPBD@Z @ 1532 NONAME ; void * QCameraImageProcessing::qt_metacast(char const *)
	??1QCameraFlashControl@@UAE@XZ @ 1533 NONAME ; QCameraFlashControl::~QCameraFlashControl(void)
	?tr@QCameraFocus@@SA?AVQString@@PBD0H@Z @ 1534 NONAME ; class QString QCameraFocus::tr(char const *, char const *, int)
	?metaObject@QCameraControl@@UBEPBUQMetaObject@@XZ @ 1535 NONAME ; struct QMetaObject const * QCameraControl::metaObject(void) const
	?setNativeResolution@QAbstractVideoSurface@@IAEXABVQSize@@@Z @ 1536 NONAME ; void QAbstractVideoSurface::setNativeResolution(class QSize const &)
	?searchAndLock@QCamera@@QAEXV?$QFlags@W4LockType@QCamera@@@@@Z @ 1537 NONAME ; void QCamera::searchAndLock(class QFlags<enum QCamera::LockType>)
	?meteringMode@QCameraExposure@@QBE?AW4MeteringMode@1@XZ @ 1538 NONAME ; enum QCameraExposure::MeteringMode QCameraExposure::meteringMode(void) const
	??_EQCameraFlashControl@@UAE@I@Z @ 1539 NONAME ; QCameraFlashControl::~QCameraFlashControl(unsigned int)
	?d_func@QCameraViewfinder@@AAEPAVQCameraViewfinderPrivate@@XZ @ 1540 NONAME ; class QCameraViewfinderPrivate * QCameraViewfinder::d_func(void)
	?metaObject@QCameraFocus@@UBEPBUQMetaObject@@XZ @ 1541 NONAME ; struct QMetaObject const * QCameraFocus::metaObject(void) const
	?metaObject@QCameraLocksControl@@UBEPBUQMetaObject@@XZ @ 1542 NONAME ; struct QMetaObject const * QCameraLocksControl::metaObject(void) const
	?errorString@QCamera@@QBE?AVQString@@XZ @ 1543 NONAME ; class QString QCamera::errorString(void) const
	?staticMetaObject@QCameraExposureControl@@2UQMetaObject@@B @ 1544 NONAME ; struct QMetaObject const QCameraExposureControl::staticMetaObject
	?supportedApertures@QCameraExposure@@QBE?AV?$QList@M@@PA_N@Z @ 1545 NONAME ; class QList<float> QCameraExposure::supportedApertures(bool *) const
	?focusZonesChanged@QCameraFocus@@IAEXXZ @ 1546 NONAME ; void QCameraFocus::focusZonesChanged(void)
	?qt_metacast@QCameraImageCaptureControl@@UAEPAXPBD@Z @ 1547 NONAME ; void * QCameraImageCaptureControl::qt_metacast(char const *)
	?tr@QCameraControl@@SA?AVQString@@PBD0H@Z @ 1548 NONAME ; class QString QCameraControl::tr(char const *, char const *, int)
	?digitalZoomChanged@QCameraFocus@@IAEXM@Z @ 1549 NONAME ; void QCameraFocus::digitalZoomChanged(float)
	?metaObject@QCamera@@UBEPBUQMetaObject@@XZ @ 1550 NONAME ; struct QMetaObject const * QCamera::metaObject(void) const
	?trUtf8@QCameraExposureControl@@SA?AVQString@@PBD0@Z @ 1551 NONAME ; class QString QCameraExposureControl::trUtf8(char const *, char const *)
	?imageExposed@QCameraImageCaptureControl@@IAEXH@Z @ 1552 NONAME ; void QCameraImageCaptureControl::imageExposed(int)
	?tr@QCameraImageCaptureControl@@SA?AVQString@@PBD0@Z @ 1553 NONAME ; class QString QCameraImageCaptureControl::tr(char const *, char const *)
	?trUtf8@QCameraLocksControl@@SA?AVQString@@PBD0@Z @ 1554 NONAME ; class QString QCameraLocksControl::trUtf8(char const *, char const *)
	?isAvailable@QCamera@@UBE_NXZ @ 1555 NONAME ; bool QCamera::isAvailable(void) const
	?stateChanged@QCameraControl@@IAEXW4State@QCamera@@@Z @ 1556 NONAME ; void QCameraControl::stateChanged(enum QCamera::State)
	?nativeResolution@QAbstractVideoSurface@@QBE?AVQSize@@XZ @ 1557 NONAME ; class QSize QAbstractVideoSurface::nativeResolution(void) const
	??0QCameraFocusZone@@QAE@XZ @ 1558 NONAME ; QCameraFocusZone::QCameraFocusZone(void)
	?trUtf8@QCameraImageProcessing@@SA?AVQString@@PBD0@Z @ 1559 NONAME ; class QString QCameraImageProcessing::trUtf8(char const *, char const *)
	?exposureParameterRangeChanged@QCameraExposureControl@@IAEXH@Z @ 1560 NONAME ; void QCameraExposureControl::exposureParameterRangeChanged(int)
	?lockFailed@QCamera@@IAEXXZ @ 1561 NONAME ; void QCamera::lockFailed(void)
	?d_func@QCameraExposure@@AAEPAVQCameraExposurePrivate@@XZ @ 1562 NONAME ; class QCameraExposurePrivate * QCameraExposure::d_func(void)
	?isoSensitivity@QCameraExposure@@QBEHXZ @ 1563 NONAME ; int QCameraExposure::isoSensitivity(void) const
	?qt_metacall@QCameraExposureControl@@UAEHW4Call@QMetaObject@@HPAPAX@Z @ 1564 NONAME ; int QCameraExposureControl::qt_metacall(enum QMetaObject::Call, int, void * *)
	?setExposureMode@QCameraExposure@@QAEXW4ExposureMode@1@@Z @ 1565 NONAME ; void QCameraExposure::setExposureMode(enum QCameraExposure::ExposureMode)
	?d_func@QCameraViewfinder@@ABEPBVQCameraViewfinderPrivate@@XZ @ 1566 NONAME ; class QCameraViewfinderPrivate const * QCameraViewfinder::d_func(void) const
	?trUtf8@QCameraImageCapture@@SA?AVQString@@PBD0@Z @ 1567 NONAME ; class QString QCameraImageCapture::trUtf8(char const *, char const *)
	?metaObject@QCameraImageProcessing@@UBEPBUQMetaObject@@XZ @ 1568 NONAME ; struct QMetaObject const * QCameraImageProcessing::metaObject(void) const
	?setMediaObject@QCameraViewfinder@@MAE_NPAVQMediaObject@@@Z @ 1569 NONAME ; bool QCameraViewfinder::setMediaObject(class QMediaObject *)
	?capture@QCameraImageCapture@@QAEHABVQString@@@Z @ 1570 NONAME ; int QCameraImageCapture::capture(class QString const &)
	??0QCameraImageCaptureControl@@IAE@PAVQObject@@@Z @ 1571 NONAME ; QCameraImageCaptureControl::QCameraImageCaptureControl(class QObject *)
	?trUtf8@QCameraExposureControl@@SA?AVQString@@PBD0H@Z @ 1572 NONAME ; class QString QCameraExposureControl::trUtf8(char const *, char const *, int)
	?tr@QCamera@@SA?AVQString@@PBD0@Z @ 1573 NONAME ; class QString QCamera::tr(char const *, char const *)
	?setViewfinder@QCamera@@QAEXPAVQVideoWidget@@@Z @ 1574 NONAME ; void QCamera::setViewfinder(class QVideoWidget *)
	?tr@QCameraFlashControl@@SA?AVQString@@PBD0@Z @ 1575 NONAME ; class QString QCameraFlashControl::tr(char const *, char const *)
	?customFocusPoint@QCameraFocus@@QBE?AVQPointF@@XZ @ 1576 NONAME ; class QPointF QCameraFocus::customFocusPoint(void) const
	??0QCameraExposure@@AAE@PAVQCamera@@@Z @ 1577 NONAME ; QCameraExposure::QCameraExposure(class QCamera *)
	?shutterSpeedChanged@QCameraExposure@@IAEXM@Z @ 1578 NONAME ; void QCameraExposure::shutterSpeedChanged(float)
	?qt_metacast@QCameraImageProcessingControl@@UAEPAXPBD@Z @ 1579 NONAME ; void * QCameraImageProcessingControl::qt_metacast(char const *)
	?error@QCameraImageCapture@@QBE?AW4Error@1@XZ @ 1580 NONAME ; enum QCameraImageCapture::Error QCameraImageCapture::error(void) const
	?state@QCamera@@QBE?AW4State@1@XZ @ 1581 NONAME ; enum QCamera::State QCamera::state(void) const
	?availabilityError@QCamera@@UBE?AW4AvailabilityError@QtMultimediaKit@@XZ @ 1582 NONAME ; enum QtMultimediaKit::AvailabilityError QCamera::availabilityError(void) const
	?cancelCapture@QCameraImageCapture@@QAEXXZ @ 1583 NONAME ; void QCameraImageCapture::cancelCapture(void)
	?trUtf8@QCamera@@SA?AVQString@@PBD0@Z @ 1584 NONAME ; class QString QCamera::trUtf8(char const *, char const *)
	?isExposureModeSupported@QCameraExposure@@QBE_NW4ExposureMode@1@@Z @ 1585 NONAME ; bool QCameraExposure::isExposureModeSupported(enum QCameraExposure::ExposureMode) const
	??0QCameraControl@@IAE@PAVQObject@@@Z @ 1586 NONAME ; QCameraControl::QCameraControl(class QObject *)
	?tr@QCameraExposure@@SA?AVQString@@PBD0H@Z @ 1587 NONAME ; class QString QCameraExposure::tr(char const *, char const *, int)
	?getStaticMetaObject@QCameraViewfinder@@SAABUQMetaObject@@XZ @ 1588 NONAME ; struct QMetaObject const & QCameraViewfinder::getStaticMetaObject(void)
	?stop@QSoundEffect@@QAEXXZ @ 1589 NONAME ; void QSoundEffect::stop(void)
	?loadedChanged@QSoundEffect@@IAEXXZ @ 1590 NONAME ; void QSoundEffect::loadedChanged(void)
	?isLoaded@QSoundEffect@@QBE_NXZ @ 1591 NONAME ; bool QSoundEffect::isLoaded(void) const
	?loopCountChanged@QSoundEffect@@IAEXXZ @ 1592 NONAME ; void QSoundEffect::loopCountChanged(void)
	?maximumOpticalZoomChanged@QCameraFocusControl@@IAEXM@Z @ 1593 NONAME ; void QCameraFocusControl::maximumOpticalZoomChanged(float)
	?maximumDigitalZoomChanged@QCameraFocus@@IAEXM@Z @ 1594 NONAME ; void QCameraFocus::maximumDigitalZoomChanged(float)
	?loopCount@QSoundEffect@@QBEHXZ @ 1595 NONAME ; int QSoundEffect::loopCount(void) const
	?supportedMimeTypes@QSoundEffect@@SA?AVQStringList@@XZ @ 1596 NONAME ; class QStringList QSoundEffect::supportedMimeTypes(void)
	?setLoopCount@QSoundEffect@@QAEXH@Z @ 1597 NONAME ; void QSoundEffect::setLoopCount(int)
	?maximumDigitalZoomChanged@QCameraFocusControl@@IAEXM@Z @ 1598 NONAME ; void QCameraFocusControl::maximumDigitalZoomChanged(float)
	?maximumOpticalZoomChanged@QCameraFocus@@IAEXM@Z @ 1599 NONAME ; void QCameraFocus::maximumOpticalZoomChanged(float)
	?status@QSoundEffect@@QBE?AW4Status@1@XZ @ 1600 NONAME ; enum QSoundEffect::Status QSoundEffect::status(void) const
	?playingChanged@QSoundEffect@@IAEXXZ @ 1601 NONAME ; void QSoundEffect::playingChanged(void)
	?isPlaying@QSoundEffect@@QBE_NXZ @ 1602 NONAME ; bool QSoundEffect::isPlaying(void) const
	?statusChanged@QSoundEffect@@IAEXXZ @ 1603 NONAME ; void QSoundEffect::statusChanged(void)
	?qt_metacall@QMediaNetworkAccessControl@@UAEHW4Call@QMetaObject@@HPAPAX@Z @ 1604 NONAME ; int QMediaNetworkAccessControl::qt_metacall(enum QMetaObject::Call, int, void * *)
	?getStaticMetaObject@QMediaNetworkAccessControl@@SAABUQMetaObject@@XZ @ 1605 NONAME ; struct QMetaObject const & QMediaNetworkAccessControl::getStaticMetaObject(void)
	?tr@QMediaNetworkAccessControl@@SA?AVQString@@PBD0H@Z @ 1606 NONAME ; class QString QMediaNetworkAccessControl::tr(char const *, char const *, int)
	?setViewfinder@QCamera@@QAEXPAVQAbstractVideoSurface@@@Z @ 1607 NONAME ; void QCamera::setViewfinder(class QAbstractVideoSurface *)
	?trUtf8@QMediaNetworkAccessControl@@SA?AVQString@@PBD0@Z @ 1608 NONAME ; class QString QMediaNetworkAccessControl::trUtf8(char const *, char const *)
	?metaObject@QMediaNetworkAccessControl@@UBEPBUQMetaObject@@XZ @ 1609 NONAME ; struct QMetaObject const * QMediaNetworkAccessControl::metaObject(void) const
	?staticMetaObject@QMediaNetworkAccessControl@@2UQMetaObject@@B @ 1610 NONAME ; struct QMetaObject const QMediaNetworkAccessControl::staticMetaObject
	?setNetworkConfigurations@QMediaPlayer@@QAEXABV?$QList@VQNetworkConfiguration@@@@@Z @ 1611 NONAME ; void QMediaPlayer::setNetworkConfigurations(class QList<class QNetworkConfiguration> const &)
	?setVideoOutput@QMediaPlayer@@QAEXPAVQAbstractVideoSurface@@@Z @ 1612 NONAME ; void QMediaPlayer::setVideoOutput(class QAbstractVideoSurface *)
	?networkConfigurationChanged@QMediaPlayer@@IAEXABVQNetworkConfiguration@@@Z @ 1613 NONAME ; void QMediaPlayer::networkConfigurationChanged(class QNetworkConfiguration const &)
	??_EQMediaNetworkAccessControl@@UAE@I@Z @ 1614 NONAME ; QMediaNetworkAccessControl::~QMediaNetworkAccessControl(unsigned int)
	??0QMediaNetworkAccessControl@@IAE@PAVQObject@@@Z @ 1615 NONAME ; QMediaNetworkAccessControl::QMediaNetworkAccessControl(class QObject *)
	?trUtf8@QMediaNetworkAccessControl@@SA?AVQString@@PBD0H@Z @ 1616 NONAME ; class QString QMediaNetworkAccessControl::trUtf8(char const *, char const *, int)
	?currentNetworkConfiguration@QMediaPlayer@@QBE?AVQNetworkConfiguration@@XZ @ 1617 NONAME ; class QNetworkConfiguration QMediaPlayer::currentNetworkConfiguration(void) const
	??1QMediaNetworkAccessControl@@UAE@XZ @ 1618 NONAME ; QMediaNetworkAccessControl::~QMediaNetworkAccessControl(void)
	?setVideoOutput@QMediaImageViewer@@QAEXPAVQAbstractVideoSurface@@@Z @ 1619 NONAME ; void QMediaImageViewer::setVideoOutput(class QAbstractVideoSurface *)
	?configurationChanged@QMediaNetworkAccessControl@@IAEXABVQNetworkConfiguration@@@Z @ 1620 NONAME ; void QMediaNetworkAccessControl::configurationChanged(class QNetworkConfiguration const &)
	?tr@QMediaNetworkAccessControl@@SA?AVQString@@PBD0@Z @ 1621 NONAME ; class QString QMediaNetworkAccessControl::tr(char const *, char const *)
	?qt_metacast@QMediaNetworkAccessControl@@UAEPAXPBD@Z @ 1622 NONAME ; void * QMediaNetworkAccessControl::qt_metacast(char const *)

