EXPORTS
	_ZN11QAudioInput11qt_metacallEN11QMetaObject4CallEiPPv @ 1 NONAME
	_ZN11QAudioInput11qt_metacastEPKc @ 2 NONAME
	_ZN11QAudioInput12stateChangedEN6QAudio5StateE @ 3 NONAME
	_ZN11QAudioInput13setBufferSizeEi @ 4 NONAME
	_ZN11QAudioInput16staticMetaObjectE @ 5 NONAME DATA 16
	_ZN11QAudioInput17setNotifyIntervalEi @ 6 NONAME
	_ZN11QAudioInput19getStaticMetaObjectEv @ 7 NONAME
	_ZN11QAudioInput4stopEv @ 8 NONAME
	_ZN11QAudioInput5resetEv @ 9 NONAME
	_ZN11QAudioInput5startEP9QIODevice @ 10 NONAME
	_ZN11QAudioInput5startEv @ 11 NONAME
	_ZN11QAudioInput6notifyEv @ 12 NONAME
	_ZN11QAudioInput6resumeEv @ 13 NONAME
	_ZN11QAudioInput7suspendEv @ 14 NONAME
	_ZN11QAudioInputC1ERK12QAudioFormatP7QObject @ 15 NONAME
	_ZN11QAudioInputC1ERK16QAudioDeviceInfoRK12QAudioFormatP7QObject @ 16 NONAME
	_ZN11QAudioInputC2ERK12QAudioFormatP7QObject @ 17 NONAME
	_ZN11QAudioInputC2ERK16QAudioDeviceInfoRK12QAudioFormatP7QObject @ 18 NONAME
	_ZN11QAudioInputD0Ev @ 19 NONAME
	_ZN11QAudioInputD1Ev @ 20 NONAME
	_ZN11QAudioInputD2Ev @ 21 NONAME
	_ZN11QRadioTuner11bandChangedENS_4BandE @ 22 NONAME
	_ZN11QRadioTuner11qt_metacallEN11QMetaObject4CallEiPPv @ 23 NONAME
	_ZN11QRadioTuner11qt_metacastEPKc @ 24 NONAME
	_ZN11QRadioTuner12cancelSearchEv @ 25 NONAME
	_ZN11QRadioTuner12mutedChangedEb @ 26 NONAME
	_ZN11QRadioTuner12setFrequencyEi @ 27 NONAME
	_ZN11QRadioTuner12stateChangedENS_5StateE @ 28 NONAME
	_ZN11QRadioTuner13searchForwardEv @ 29 NONAME
	_ZN11QRadioTuner13setStereoModeENS_10StereoModeE @ 30 NONAME
	_ZN11QRadioTuner13volumeChangedEi @ 31 NONAME
	_ZN11QRadioTuner14searchBackwardEv @ 32 NONAME
	_ZN11QRadioTuner16frequencyChangedEi @ 33 NONAME
	_ZN11QRadioTuner16searchingChangedEb @ 34 NONAME
	_ZN11QRadioTuner16staticMetaObjectE @ 35 NONAME DATA 16
	_ZN11QRadioTuner19getStaticMetaObjectEv @ 36 NONAME
	_ZN11QRadioTuner19stereoStatusChangedEb @ 37 NONAME
	_ZN11QRadioTuner21signalStrengthChangedEi @ 38 NONAME
	_ZN11QRadioTuner4stopEv @ 39 NONAME
	_ZN11QRadioTuner5errorENS_5ErrorE @ 40 NONAME
	_ZN11QRadioTuner5startEv @ 41 NONAME
	_ZN11QRadioTuner7setBandENS_4BandE @ 42 NONAME
	_ZN11QRadioTuner8setMutedEb @ 43 NONAME
	_ZN11QRadioTuner9setVolumeEi @ 44 NONAME
	_ZN11QRadioTunerC1EP7QObjectP21QMediaServiceProvider @ 45 NONAME
	_ZN11QRadioTunerC2EP7QObjectP21QMediaServiceProvider @ 46 NONAME
	_ZN11QRadioTunerD0Ev @ 47 NONAME
	_ZN11QRadioTunerD1Ev @ 48 NONAME
	_ZN11QRadioTunerD2Ev @ 49 NONAME
	_ZN11QVideoFrame10setEndTimeEx @ 50 NONAME
	_ZN11QVideoFrame12setFieldTypeENS_9FieldTypeE @ 51 NONAME
	_ZN11QVideoFrame12setStartTimeEx @ 52 NONAME
	_ZN11QVideoFrame26imageFormatFromPixelFormatENS_11PixelFormatE @ 53 NONAME
	_ZN11QVideoFrame26pixelFormatFromImageFormatEN6QImage6FormatE @ 54 NONAME
	_ZN11QVideoFrame3mapEN20QAbstractVideoBuffer7MapModeE @ 55 NONAME
	_ZN11QVideoFrame4bitsEv @ 56 NONAME
	_ZN11QVideoFrame5unmapEv @ 57 NONAME
	_ZN11QVideoFrameC1EP20QAbstractVideoBufferRK5QSizeNS_11PixelFormatE @ 58 NONAME
	_ZN11QVideoFrameC1ERK6QImage @ 59 NONAME
	_ZN11QVideoFrameC1ERKS_ @ 60 NONAME
	_ZN11QVideoFrameC1EiRK5QSizeiNS_11PixelFormatE @ 61 NONAME
	_ZN11QVideoFrameC1Ev @ 62 NONAME
	_ZN11QVideoFrameC2EP20QAbstractVideoBufferRK5QSizeNS_11PixelFormatE @ 63 NONAME
	_ZN11QVideoFrameC2ERK6QImage @ 64 NONAME
	_ZN11QVideoFrameC2ERKS_ @ 65 NONAME
	_ZN11QVideoFrameC2EiRK5QSizeiNS_11PixelFormatE @ 66 NONAME
	_ZN11QVideoFrameC2Ev @ 67 NONAME
	_ZN11QVideoFrameD1Ev @ 68 NONAME
	_ZN11QVideoFrameD2Ev @ 69 NONAME
	_ZN11QVideoFrameaSERKS_ @ 70 NONAME
	_ZN12QAudioFormat11setChannelsEi @ 71 NONAME
	_ZN12QAudioFormat12setByteOrderENS_6EndianE @ 72 NONAME
	_ZN12QAudioFormat12setFrequencyEi @ 73 NONAME
	_ZN12QAudioFormat13setSampleRateEi @ 74 NONAME
	_ZN12QAudioFormat13setSampleSizeEi @ 75 NONAME
	_ZN12QAudioFormat13setSampleTypeENS_10SampleTypeE @ 76 NONAME
	_ZN12QAudioFormat15setChannelCountEi @ 77 NONAME
	_ZN12QAudioFormat8setCodecERK7QString @ 78 NONAME
	_ZN12QAudioFormatC1ERKS_ @ 79 NONAME
	_ZN12QAudioFormatC1Ev @ 80 NONAME
	_ZN12QAudioFormatC2ERKS_ @ 81 NONAME
	_ZN12QAudioFormatC2Ev @ 82 NONAME
	_ZN12QAudioFormatD1Ev @ 83 NONAME
	_ZN12QAudioFormatD2Ev @ 84 NONAME
	_ZN12QAudioFormataSERKS_ @ 85 NONAME
	_ZN12QAudioOutput11qt_metacallEN11QMetaObject4CallEiPPv @ 86 NONAME
	_ZN12QAudioOutput11qt_metacastEPKc @ 87 NONAME
	_ZN12QAudioOutput12stateChangedEN6QAudio5StateE @ 88 NONAME
	_ZN12QAudioOutput13setBufferSizeEi @ 89 NONAME
	_ZN12QAudioOutput16staticMetaObjectE @ 90 NONAME DATA 16
	_ZN12QAudioOutput17setNotifyIntervalEi @ 91 NONAME
	_ZN12QAudioOutput19getStaticMetaObjectEv @ 92 NONAME
	_ZN12QAudioOutput4stopEv @ 93 NONAME
	_ZN12QAudioOutput5resetEv @ 94 NONAME
	_ZN12QAudioOutput5startEP9QIODevice @ 95 NONAME
	_ZN12QAudioOutput5startEv @ 96 NONAME
	_ZN12QAudioOutput6notifyEv @ 97 NONAME
	_ZN12QAudioOutput6resumeEv @ 98 NONAME
	_ZN12QAudioOutput7suspendEv @ 99 NONAME
	_ZN12QAudioOutputC1ERK12QAudioFormatP7QObject @ 100 NONAME
	_ZN12QAudioOutputC1ERK16QAudioDeviceInfoRK12QAudioFormatP7QObject @ 101 NONAME
	_ZN12QAudioOutputC2ERK12QAudioFormatP7QObject @ 102 NONAME
	_ZN12QAudioOutputC2ERK16QAudioDeviceInfoRK12QAudioFormatP7QObject @ 103 NONAME
	_ZN12QAudioOutputD0Ev @ 104 NONAME
	_ZN12QAudioOutputD1Ev @ 105 NONAME
	_ZN12QAudioOutputD2Ev @ 106 NONAME
	_ZN12QMediaObject11qt_metacallEN11QMetaObject4CallEiPPv @ 107 NONAME
	_ZN12QMediaObject11qt_metacastEPKc @ 108 NONAME
	_ZN12QMediaObject13setupMetaDataEv @ 109 NONAME
	_ZN12QMediaObject15metaDataChangedEv @ 110 NONAME
	_ZN12QMediaObject16addPropertyWatchERK10QByteArray @ 111 NONAME
	_ZN12QMediaObject16staticMetaObjectE @ 112 NONAME DATA 16
	_ZN12QMediaObject17setNotifyIntervalEi @ 113 NONAME
	_ZN12QMediaObject19availabilityChangedEb @ 114 NONAME
	_ZN12QMediaObject19getStaticMetaObjectEv @ 115 NONAME
	_ZN12QMediaObject19removePropertyWatchERK10QByteArray @ 116 NONAME
	_ZN12QMediaObject21notifyIntervalChangedEi @ 117 NONAME
	_ZN12QMediaObject24metaDataAvailableChangedEb @ 118 NONAME
	_ZN12QMediaObject4bindEP7QObject @ 119 NONAME
	_ZN12QMediaObject6unbindEP7QObject @ 120 NONAME
	_ZN12QMediaObjectC1EP7QObjectP13QMediaService @ 121 NONAME
	_ZN12QMediaObjectC1ER19QMediaObjectPrivateP7QObjectP13QMediaService @ 122 NONAME
	_ZN12QMediaObjectC2EP7QObjectP13QMediaService @ 123 NONAME
	_ZN12QMediaObjectC2ER19QMediaObjectPrivateP7QObjectP13QMediaService @ 124 NONAME
	_ZN12QMediaObjectD0Ev @ 125 NONAME
	_ZN12QMediaObjectD1Ev @ 126 NONAME
	_ZN12QMediaObjectD2Ev @ 127 NONAME
	_ZN12QMediaPlayer10hasSupportERK7QStringRK11QStringList6QFlagsINS_4FlagEE @ 128 NONAME
	_ZN12QMediaPlayer11qt_metacallEN11QMetaObject4CallEiPPv @ 129 NONAME
	_ZN12QMediaPlayer11qt_metacastEPKc @ 130 NONAME
	_ZN12QMediaPlayer11setPlaylistEP14QMediaPlaylist @ 131 NONAME
	_ZN12QMediaPlayer11setPositionEx @ 132 NONAME
	_ZN12QMediaPlayer12mediaChangedERK13QMediaContent @ 133 NONAME
	_ZN12QMediaPlayer12mutedChangedEb @ 134 NONAME
	_ZN12QMediaPlayer12stateChangedENS_5StateE @ 135 NONAME
	_ZN12QMediaPlayer13volumeChangedEi @ 136 NONAME
	_ZN12QMediaPlayer14setVideoOutputEP12QVideoWidget @ 137 NONAME
	_ZN12QMediaPlayer14setVideoOutputEP18QGraphicsVideoItem @ 138 NONAME
	_ZN12QMediaPlayer15durationChangedEx @ 139 NONAME
	_ZN12QMediaPlayer15positionChangedEx @ 140 NONAME
	_ZN12QMediaPlayer15seekableChangedEb @ 141 NONAME
	_ZN12QMediaPlayer15setPlaybackRateEf @ 142 NONAME
	_ZN12QMediaPlayer16staticMetaObjectE @ 143 NONAME DATA 16
	_ZN12QMediaPlayer18mediaStatusChangedENS_11MediaStatusE @ 144 NONAME
	_ZN12QMediaPlayer18supportedMimeTypesE6QFlagsINS_4FlagEE @ 145 NONAME
	_ZN12QMediaPlayer19bufferStatusChangedEi @ 146 NONAME
	_ZN12QMediaPlayer19getStaticMetaObjectEv @ 147 NONAME
	_ZN12QMediaPlayer19playbackRateChangedEf @ 148 NONAME
	_ZN12QMediaPlayer21audioAvailableChangedEb @ 149 NONAME
	_ZN12QMediaPlayer21videoAvailableChangedEb @ 150 NONAME
	_ZN12QMediaPlayer4bindEP7QObject @ 151 NONAME
	_ZN12QMediaPlayer4playEv @ 152 NONAME
	_ZN12QMediaPlayer4stopEv @ 153 NONAME
	_ZN12QMediaPlayer5errorENS_5ErrorE @ 154 NONAME
	_ZN12QMediaPlayer5pauseEv @ 155 NONAME
	_ZN12QMediaPlayer6unbindEP7QObject @ 156 NONAME
	_ZN12QMediaPlayer8setMediaERK13QMediaContentP9QIODevice @ 157 NONAME
	_ZN12QMediaPlayer8setMutedEb @ 158 NONAME
	_ZN12QMediaPlayer9setVolumeEi @ 159 NONAME
	_ZN12QMediaPlayerC1EP7QObject6QFlagsINS_4FlagEEP21QMediaServiceProvider @ 160 NONAME
	_ZN12QMediaPlayerC2EP7QObject6QFlagsINS_4FlagEEP21QMediaServiceProvider @ 161 NONAME
	_ZN12QMediaPlayerD0Ev @ 162 NONAME
	_ZN12QMediaPlayerD1Ev @ 163 NONAME
	_ZN12QMediaPlayerD2Ev @ 164 NONAME
	_ZN12QSoundEffect11qt_metacallEN11QMetaObject4CallEiPPv @ 165 NONAME
	_ZN12QSoundEffect11qt_metacastEPKc @ 166 NONAME
	_ZN12QSoundEffect12loopsChangedEv @ 167 NONAME ABSENT
	_ZN12QSoundEffect12mutedChangedEv @ 168 NONAME
	_ZN12QSoundEffect13sourceChangedEv @ 169 NONAME
	_ZN12QSoundEffect13volumeChangedEv @ 170 NONAME
	_ZN12QSoundEffect16staticMetaObjectE @ 171 NONAME DATA 16
	_ZN12QSoundEffect19getStaticMetaObjectEv @ 172 NONAME
	_ZN12QSoundEffect4playEv @ 173 NONAME
	_ZN12QSoundEffect8setLoopsEi @ 174 NONAME ABSENT
	_ZN12QSoundEffect8setMutedEb @ 175 NONAME
	_ZN12QSoundEffect9setSourceERK4QUrl @ 176 NONAME
	_ZN12QSoundEffect9setVolumeEf @ 177 NONAME
	_ZN12QSoundEffectC1EP7QObject @ 178 NONAME
	_ZN12QSoundEffectC2EP7QObject @ 179 NONAME
	_ZN12QSoundEffectD0Ev @ 180 NONAME
	_ZN12QSoundEffectD1Ev @ 181 NONAME
	_ZN12QSoundEffectD2Ev @ 182 NONAME
	_ZN12QVideoWidget10hueChangedEi @ 183 NONAME
	_ZN12QVideoWidget10paintEventEP11QPaintEvent @ 184 NONAME
	_ZN12QVideoWidget11qt_metacallEN11QMetaObject4CallEiPPv @ 185 NONAME
	_ZN12QVideoWidget11qt_metacastEPKc @ 186 NONAME
	_ZN12QVideoWidget11resizeEventEP12QResizeEvent @ 187 NONAME
	_ZN12QVideoWidget11setContrastEi @ 188 NONAME
	_ZN12QVideoWidget13setBrightnessEi @ 189 NONAME
	_ZN12QVideoWidget13setFullScreenEb @ 190 NONAME
	_ZN12QVideoWidget13setSaturationEi @ 191 NONAME
	_ZN12QVideoWidget14setMediaObjectEP12QMediaObject @ 192 NONAME
	_ZN12QVideoWidget15contrastChangedEi @ 193 NONAME
	_ZN12QVideoWidget16staticMetaObjectE @ 194 NONAME DATA 16
	_ZN12QVideoWidget17brightnessChangedEi @ 195 NONAME
	_ZN12QVideoWidget17fullScreenChangedEb @ 196 NONAME
	_ZN12QVideoWidget17saturationChangedEi @ 197 NONAME
	_ZN12QVideoWidget18setAspectRatioModeEN2Qt15AspectRatioModeE @ 198 NONAME
	_ZN12QVideoWidget19getStaticMetaObjectEv @ 199 NONAME
	_ZN12QVideoWidget5eventEP6QEvent @ 200 NONAME
	_ZN12QVideoWidget6setHueEi @ 201 NONAME
	_ZN12QVideoWidget9hideEventEP10QHideEvent @ 202 NONAME
	_ZN12QVideoWidget9moveEventEP10QMoveEvent @ 203 NONAME
	_ZN12QVideoWidget9showEventEP10QShowEvent @ 204 NONAME
	_ZN12QVideoWidgetC1EP7QWidget @ 205 NONAME
	_ZN12QVideoWidgetC2EP7QWidget @ 206 NONAME
	_ZN12QVideoWidgetD0Ev @ 207 NONAME
	_ZN12QVideoWidgetD1Ev @ 208 NONAME
	_ZN12QVideoWidgetD2Ev @ 209 NONAME
	_ZN13QMediaContentC1ERK14QMediaResource @ 210 NONAME
	_ZN13QMediaContentC1ERK15QNetworkRequest @ 211 NONAME
	_ZN13QMediaContentC1ERK4QUrl @ 212 NONAME
	_ZN13QMediaContentC1ERK5QListI14QMediaResourceE @ 213 NONAME
	_ZN13QMediaContentC1ERKS_ @ 214 NONAME
	_ZN13QMediaContentC1Ev @ 215 NONAME
	_ZN13QMediaContentC2ERK14QMediaResource @ 216 NONAME
	_ZN13QMediaContentC2ERK15QNetworkRequest @ 217 NONAME
	_ZN13QMediaContentC2ERK4QUrl @ 218 NONAME
	_ZN13QMediaContentC2ERK5QListI14QMediaResourceE @ 219 NONAME
	_ZN13QMediaContentC2ERKS_ @ 220 NONAME
	_ZN13QMediaContentC2Ev @ 221 NONAME
	_ZN13QMediaContentD1Ev @ 222 NONAME
	_ZN13QMediaContentD2Ev @ 223 NONAME
	_ZN13QMediaContentaSERKS_ @ 224 NONAME
	_ZN13QMediaControl11qt_metacallEN11QMetaObject4CallEiPPv @ 225 NONAME
	_ZN13QMediaControl11qt_metacastEPKc @ 226 NONAME
	_ZN13QMediaControl16staticMetaObjectE @ 227 NONAME DATA 16
	_ZN13QMediaControl19getStaticMetaObjectEv @ 228 NONAME
	_ZN13QMediaControlC1EP7QObject @ 229 NONAME
	_ZN13QMediaControlC1ER20QMediaControlPrivateP7QObject @ 230 NONAME
	_ZN13QMediaControlC2EP7QObject @ 231 NONAME
	_ZN13QMediaControlC2ER20QMediaControlPrivateP7QObject @ 232 NONAME
	_ZN13QMediaControlD0Ev @ 233 NONAME
	_ZN13QMediaControlD1Ev @ 234 NONAME
	_ZN13QMediaControlD2Ev @ 235 NONAME
	_ZN13QMediaService11qt_metacallEN11QMetaObject4CallEiPPv @ 236 NONAME
	_ZN13QMediaService11qt_metacastEPKc @ 237 NONAME
	_ZN13QMediaService16staticMetaObjectE @ 238 NONAME DATA 16
	_ZN13QMediaService19getStaticMetaObjectEv @ 239 NONAME
	_ZN13QMediaServiceC2EP7QObject @ 240 NONAME
	_ZN13QMediaServiceC2ER20QMediaServicePrivateP7QObject @ 241 NONAME
	_ZN13QMediaServiceD0Ev @ 242 NONAME
	_ZN13QMediaServiceD1Ev @ 243 NONAME
	_ZN13QMediaServiceD2Ev @ 244 NONAME
	_ZN14QMediaPlaylist10loadFailedEv @ 245 NONAME
	_ZN14QMediaPlaylist11insertMediaEiRK13QMediaContent @ 246 NONAME
	_ZN14QMediaPlaylist11insertMediaEiRK5QListI13QMediaContentE @ 247 NONAME
	_ZN14QMediaPlaylist11qt_metacallEN11QMetaObject4CallEiPPv @ 248 NONAME
	_ZN14QMediaPlaylist11qt_metacastEPKc @ 249 NONAME
	_ZN14QMediaPlaylist11removeMediaEi @ 250 NONAME
	_ZN14QMediaPlaylist11removeMediaEii @ 251 NONAME
	_ZN14QMediaPlaylist12mediaChangedEii @ 252 NONAME
	_ZN14QMediaPlaylist12mediaRemovedEii @ 253 NONAME
	_ZN14QMediaPlaylist13mediaInsertedEii @ 254 NONAME
	_ZN14QMediaPlaylist14setMediaObjectEP12QMediaObject @ 255 NONAME
	_ZN14QMediaPlaylist15setCurrentIndexEi @ 256 NONAME
	_ZN14QMediaPlaylist15setPlaybackModeENS_12PlaybackModeE @ 257 NONAME
	_ZN14QMediaPlaylist16staticMetaObjectE @ 258 NONAME DATA 16
	_ZN14QMediaPlaylist19currentIndexChangedEi @ 259 NONAME
	_ZN14QMediaPlaylist19currentMediaChangedERK13QMediaContent @ 260 NONAME
	_ZN14QMediaPlaylist19getStaticMetaObjectEv @ 261 NONAME
	_ZN14QMediaPlaylist19playbackModeChangedENS_12PlaybackModeE @ 262 NONAME
	_ZN14QMediaPlaylist21mediaAboutToBeRemovedEii @ 263 NONAME
	_ZN14QMediaPlaylist22mediaAboutToBeInsertedEii @ 264 NONAME
	_ZN14QMediaPlaylist4loadEP9QIODevicePKc @ 265 NONAME
	_ZN14QMediaPlaylist4loadERK4QUrlPKc @ 266 NONAME
	_ZN14QMediaPlaylist4nextEv @ 267 NONAME
	_ZN14QMediaPlaylist4saveEP9QIODevicePKc @ 268 NONAME
	_ZN14QMediaPlaylist4saveERK4QUrlPKc @ 269 NONAME
	_ZN14QMediaPlaylist5clearEv @ 270 NONAME
	_ZN14QMediaPlaylist6loadedEv @ 271 NONAME
	_ZN14QMediaPlaylist7shuffleEv @ 272 NONAME
	_ZN14QMediaPlaylist8addMediaERK13QMediaContent @ 273 NONAME
	_ZN14QMediaPlaylist8addMediaERK5QListI13QMediaContentE @ 274 NONAME
	_ZN14QMediaPlaylist8previousEv @ 275 NONAME
	_ZN14QMediaPlaylistC1EP7QObject @ 276 NONAME
	_ZN14QMediaPlaylistC2EP7QObject @ 277 NONAME
	_ZN14QMediaPlaylistD0Ev @ 278 NONAME
	_ZN14QMediaPlaylistD1Ev @ 279 NONAME
	_ZN14QMediaPlaylistD2Ev @ 280 NONAME
	_ZN14QMediaRecorder11qt_metacallEN11QMetaObject4CallEiPPv @ 281 NONAME
	_ZN14QMediaRecorder11qt_metacastEPKc @ 282 NONAME
	_ZN14QMediaRecorder11setMetaDataEN15QtMultimediaKit8MetaDataERK8QVariant @ 283 NONAME
	_ZN14QMediaRecorder12mutedChangedEb @ 284 NONAME
	_ZN14QMediaRecorder12stateChangedENS_5StateE @ 285 NONAME
	_ZN14QMediaRecorder14setMediaObjectEP12QMediaObject @ 286 NONAME
	_ZN14QMediaRecorder15durationChangedEx @ 287 NONAME
	_ZN14QMediaRecorder15metaDataChangedEv @ 288 NONAME
	_ZN14QMediaRecorder16staticMetaObjectE @ 289 NONAME DATA 16
	_ZN14QMediaRecorder17setOutputLocationERK4QUrl @ 290 NONAME
	_ZN14QMediaRecorder19getStaticMetaObjectEv @ 291 NONAME
	_ZN14QMediaRecorder19setEncodingSettingsERK21QAudioEncoderSettingsRK21QVideoEncoderSettingsRK7QString @ 292 NONAME
	_ZN14QMediaRecorder19setExtendedMetaDataERK7QStringRK8QVariant @ 293 NONAME
	_ZN14QMediaRecorder23metaDataWritableChangedEb @ 294 NONAME
	_ZN14QMediaRecorder24metaDataAvailableChangedEb @ 295 NONAME
	_ZN14QMediaRecorder4stopEv @ 296 NONAME
	_ZN14QMediaRecorder5errorENS_5ErrorE @ 297 NONAME
	_ZN14QMediaRecorder5pauseEv @ 298 NONAME
	_ZN14QMediaRecorder6recordEv @ 299 NONAME
	_ZN14QMediaRecorder8setMutedEb @ 300 NONAME
	_ZN14QMediaRecorderC1EP12QMediaObjectP7QObject @ 301 NONAME
	_ZN14QMediaRecorderC2EP12QMediaObjectP7QObject @ 302 NONAME
	_ZN14QMediaRecorderD0Ev @ 303 NONAME
	_ZN14QMediaRecorderD1Ev @ 304 NONAME
	_ZN14QMediaRecorderD2Ev @ 305 NONAME
	_ZN14QMediaResource11setDataSizeEx @ 306 NONAME
	_ZN14QMediaResource11setLanguageERK7QString @ 307 NONAME
	_ZN14QMediaResource13setAudioCodecERK7QString @ 308 NONAME
	_ZN14QMediaResource13setResolutionERK5QSize @ 309 NONAME
	_ZN14QMediaResource13setResolutionEii @ 310 NONAME
	_ZN14QMediaResource13setSampleRateEi @ 311 NONAME
	_ZN14QMediaResource13setVideoCodecERK7QString @ 312 NONAME
	_ZN14QMediaResource15setAudioBitRateEi @ 313 NONAME
	_ZN14QMediaResource15setChannelCountEi @ 314 NONAME
	_ZN14QMediaResource15setVideoBitRateEi @ 315 NONAME
	_ZN14QMediaResourceC1ERK15QNetworkRequestRK7QString @ 316 NONAME
	_ZN14QMediaResourceC1ERK4QUrlRK7QString @ 317 NONAME
	_ZN14QMediaResourceC1ERKS_ @ 318 NONAME
	_ZN14QMediaResourceC1Ev @ 319 NONAME
	_ZN14QMediaResourceC2ERK15QNetworkRequestRK7QString @ 320 NONAME
	_ZN14QMediaResourceC2ERK4QUrlRK7QString @ 321 NONAME
	_ZN14QMediaResourceC2ERKS_ @ 322 NONAME
	_ZN14QMediaResourceC2Ev @ 323 NONAME
	_ZN14QMediaResourceD1Ev @ 324 NONAME
	_ZN14QMediaResourceD2Ev @ 325 NONAME
	_ZN14QMediaResourceaSERKS_ @ 326 NONAME
	_ZN15QMediaTimeRange11addIntervalERK18QMediaTimeInterval @ 327 NONAME
	_ZN15QMediaTimeRange11addIntervalExx @ 328 NONAME
	_ZN15QMediaTimeRange12addTimeRangeERKS_ @ 329 NONAME
	_ZN15QMediaTimeRange14removeIntervalERK18QMediaTimeInterval @ 330 NONAME
	_ZN15QMediaTimeRange14removeIntervalExx @ 331 NONAME
	_ZN15QMediaTimeRange15removeTimeRangeERKS_ @ 332 NONAME
	_ZN15QMediaTimeRange5clearEv @ 333 NONAME
	_ZN15QMediaTimeRangeC1ERK18QMediaTimeInterval @ 334 NONAME
	_ZN15QMediaTimeRangeC1ERKS_ @ 335 NONAME
	_ZN15QMediaTimeRangeC1Ev @ 336 NONAME
	_ZN15QMediaTimeRangeC1Exx @ 337 NONAME
	_ZN15QMediaTimeRangeC2ERK18QMediaTimeInterval @ 338 NONAME
	_ZN15QMediaTimeRangeC2ERKS_ @ 339 NONAME
	_ZN15QMediaTimeRangeC2Ev @ 340 NONAME
	_ZN15QMediaTimeRangeC2Exx @ 341 NONAME
	_ZN15QMediaTimeRangeD1Ev @ 342 NONAME
	_ZN15QMediaTimeRangeD2Ev @ 343 NONAME
	_ZN15QMediaTimeRangeaSERK18QMediaTimeInterval @ 344 NONAME
	_ZN15QMediaTimeRangeaSERKS_ @ 345 NONAME
	_ZN15QMediaTimeRangemIERK18QMediaTimeInterval @ 346 NONAME
	_ZN15QMediaTimeRangemIERKS_ @ 347 NONAME
	_ZN15QMediaTimeRangepLERK18QMediaTimeInterval @ 348 NONAME
	_ZN15QMediaTimeRangepLERKS_ @ 349 NONAME
	_ZN16QAudioDeviceInfo16availableDevicesEN6QAudio4ModeE @ 350 NONAME
	_ZN16QAudioDeviceInfo18defaultInputDeviceEv @ 351 NONAME
	_ZN16QAudioDeviceInfo19defaultOutputDeviceEv @ 352 NONAME
	_ZN16QAudioDeviceInfoC1ERK7QStringRK10QByteArrayN6QAudio4ModeE @ 353 NONAME
	_ZN16QAudioDeviceInfoC1ERKS_ @ 354 NONAME
	_ZN16QAudioDeviceInfoC1Ev @ 355 NONAME
	_ZN16QAudioDeviceInfoC2ERK7QStringRK10QByteArrayN6QAudio4ModeE @ 356 NONAME
	_ZN16QAudioDeviceInfoC2ERKS_ @ 357 NONAME
	_ZN16QAudioDeviceInfoC2Ev @ 358 NONAME
	_ZN16QAudioDeviceInfoD1Ev @ 359 NONAME
	_ZN16QAudioDeviceInfoD2Ev @ 360 NONAME
	_ZN16QAudioDeviceInfoaSERKS_ @ 361 NONAME
	_ZN17QImageVideoBuffer3mapEN20QAbstractVideoBuffer7MapModeEPiS2_ @ 362 NONAME
	_ZN17QImageVideoBuffer5unmapEv @ 363 NONAME
	_ZN17QImageVideoBufferC1ERK6QImage @ 364 NONAME
	_ZN17QImageVideoBufferC2ERK6QImage @ 365 NONAME
	_ZN17QImageVideoBufferD0Ev @ 366 NONAME
	_ZN17QImageVideoBufferD1Ev @ 367 NONAME
	_ZN17QImageVideoBufferD2Ev @ 368 NONAME
	_ZN17QMediaImageViewer10setTimeoutEi @ 369 NONAME
	_ZN17QMediaImageViewer10timerEventEP11QTimerEvent @ 370 NONAME
	_ZN17QMediaImageViewer11qt_metacallEN11QMetaObject4CallEiPPv @ 371 NONAME
	_ZN17QMediaImageViewer11qt_metacastEPKc @ 372 NONAME
	_ZN17QMediaImageViewer11setPlaylistEP14QMediaPlaylist @ 373 NONAME
	_ZN17QMediaImageViewer12mediaChangedERK13QMediaContent @ 374 NONAME
	_ZN17QMediaImageViewer12stateChangedENS_5StateE @ 375 NONAME
	_ZN17QMediaImageViewer16staticMetaObjectE @ 376 NONAME DATA 16
	_ZN17QMediaImageViewer18elapsedTimeChangedEi @ 377 NONAME
	_ZN17QMediaImageViewer18mediaStatusChangedENS_11MediaStatusE @ 378 NONAME
	_ZN17QMediaImageViewer19getStaticMetaObjectEv @ 379 NONAME
	_ZN17QMediaImageViewer4bindEP7QObject @ 380 NONAME
	_ZN17QMediaImageViewer4playEv @ 381 NONAME
	_ZN17QMediaImageViewer4stopEv @ 382 NONAME
	_ZN17QMediaImageViewer5pauseEv @ 383 NONAME
	_ZN17QMediaImageViewer6unbindEP7QObject @ 384 NONAME
	_ZN17QMediaImageViewer8setMediaERK13QMediaContent @ 385 NONAME
	_ZN17QMediaImageViewerC1EP7QObject @ 386 NONAME
	_ZN17QMediaImageViewerC2EP7QObject @ 387 NONAME
	_ZN17QMediaImageViewerD0Ev @ 388 NONAME
	_ZN17QMediaImageViewerD1Ev @ 389 NONAME
	_ZN17QMediaImageViewerD2Ev @ 390 NONAME
	_ZN18QAudioSystemPlugin11qt_metacallEN11QMetaObject4CallEiPPv @ 391 NONAME
	_ZN18QAudioSystemPlugin11qt_metacastEPKc @ 392 NONAME
	_ZN18QAudioSystemPlugin16staticMetaObjectE @ 393 NONAME DATA 16
	_ZN18QAudioSystemPlugin19getStaticMetaObjectEv @ 394 NONAME
	_ZN18QAudioSystemPluginC2EP7QObject @ 395 NONAME
	_ZN18QAudioSystemPluginD0Ev @ 396 NONAME
	_ZN18QAudioSystemPluginD1Ev @ 397 NONAME
	_ZN18QAudioSystemPluginD2Ev @ 398 NONAME
	_ZN18QGraphicsVideoItem10itemChangeEN13QGraphicsItem18GraphicsItemChangeERK8QVariant @ 399 NONAME
	_ZN18QGraphicsVideoItem10timerEventEP11QTimerEvent @ 400 NONAME
	_ZN18QGraphicsVideoItem11qt_metacallEN11QMetaObject4CallEiPPv @ 401 NONAME
	_ZN18QGraphicsVideoItem11qt_metacastEPKc @ 402 NONAME
	_ZN18QGraphicsVideoItem14setMediaObjectEP12QMediaObject @ 403 NONAME
	_ZN18QGraphicsVideoItem16staticMetaObjectE @ 404 NONAME DATA 16
	_ZN18QGraphicsVideoItem17nativeSizeChangedERK6QSizeF @ 405 NONAME
	_ZN18QGraphicsVideoItem18setAspectRatioModeEN2Qt15AspectRatioModeE @ 406 NONAME
	_ZN18QGraphicsVideoItem19getStaticMetaObjectEv @ 407 NONAME
	_ZN18QGraphicsVideoItem5paintEP8QPainterPK24QStyleOptionGraphicsItemP7QWidget @ 408 NONAME
	_ZN18QGraphicsVideoItem7setSizeERK6QSizeF @ 409 NONAME
	_ZN18QGraphicsVideoItem9setOffsetERK7QPointF @ 410 NONAME
	_ZN18QGraphicsVideoItemC1EP13QGraphicsItem @ 411 NONAME
	_ZN18QGraphicsVideoItemC2EP13QGraphicsItem @ 412 NONAME
	_ZN18QGraphicsVideoItemD0Ev @ 413 NONAME
	_ZN18QGraphicsVideoItemD1Ev @ 414 NONAME
	_ZN18QGraphicsVideoItemD2Ev @ 415 NONAME
	_ZN18QMediaTimeIntervalC1ERKS_ @ 416 NONAME
	_ZN18QMediaTimeIntervalC1Ev @ 417 NONAME
	_ZN18QMediaTimeIntervalC1Exx @ 418 NONAME
	_ZN18QMediaTimeIntervalC2ERKS_ @ 419 NONAME
	_ZN18QMediaTimeIntervalC2Ev @ 420 NONAME
	_ZN18QMediaTimeIntervalC2Exx @ 421 NONAME
	_ZN18QMemoryVideoBuffer3mapEN20QAbstractVideoBuffer7MapModeEPiS2_ @ 422 NONAME
	_ZN18QMemoryVideoBuffer5unmapEv @ 423 NONAME
	_ZN18QMemoryVideoBufferC1ERK10QByteArrayi @ 424 NONAME
	_ZN18QMemoryVideoBufferC2ERK10QByteArrayi @ 425 NONAME
	_ZN18QMemoryVideoBufferD0Ev @ 426 NONAME
	_ZN18QMemoryVideoBufferD1Ev @ 427 NONAME
	_ZN18QMemoryVideoBufferD2Ev @ 428 NONAME
	_ZN18QRadioTunerControl11bandChangedEN11QRadioTuner4BandE @ 429 NONAME
	_ZN18QRadioTunerControl11qt_metacallEN11QMetaObject4CallEiPPv @ 430 NONAME
	_ZN18QRadioTunerControl11qt_metacastEPKc @ 431 NONAME
	_ZN18QRadioTunerControl12mutedChangedEb @ 432 NONAME
	_ZN18QRadioTunerControl12stateChangedEN11QRadioTuner5StateE @ 433 NONAME
	_ZN18QRadioTunerControl13volumeChangedEi @ 434 NONAME
	_ZN18QRadioTunerControl16frequencyChangedEi @ 435 NONAME
	_ZN18QRadioTunerControl16searchingChangedEb @ 436 NONAME
	_ZN18QRadioTunerControl16staticMetaObjectE @ 437 NONAME DATA 16
	_ZN18QRadioTunerControl19getStaticMetaObjectEv @ 438 NONAME
	_ZN18QRadioTunerControl19stereoStatusChangedEb @ 439 NONAME
	_ZN18QRadioTunerControl21signalStrengthChangedEi @ 440 NONAME
	_ZN18QRadioTunerControl5errorEN11QRadioTuner5ErrorE @ 441 NONAME
	_ZN18QRadioTunerControlC2EP7QObject @ 442 NONAME
	_ZN18QRadioTunerControlD0Ev @ 443 NONAME
	_ZN18QRadioTunerControlD1Ev @ 444 NONAME
	_ZN18QRadioTunerControlD2Ev @ 445 NONAME
	_ZN19QAbstractAudioInput11qt_metacallEN11QMetaObject4CallEiPPv @ 446 NONAME
	_ZN19QAbstractAudioInput11qt_metacastEPKc @ 447 NONAME
	_ZN19QAbstractAudioInput12errorChangedEN6QAudio5ErrorE @ 448 NONAME
	_ZN19QAbstractAudioInput12stateChangedEN6QAudio5StateE @ 449 NONAME
	_ZN19QAbstractAudioInput16staticMetaObjectE @ 450 NONAME DATA 16
	_ZN19QAbstractAudioInput19getStaticMetaObjectEv @ 451 NONAME
	_ZN19QAbstractAudioInput6notifyEv @ 452 NONAME
	_ZN19QAudioCaptureSource11qt_metacallEN11QMetaObject4CallEiPPv @ 453 NONAME
	_ZN19QAudioCaptureSource11qt_metacastEPKc @ 454 NONAME
	_ZN19QAudioCaptureSource13setAudioInputERK7QString @ 455 NONAME
	_ZN19QAudioCaptureSource13statusChangedEv @ 456 NONAME
	_ZN19QAudioCaptureSource16staticMetaObjectE @ 457 NONAME DATA 16
	_ZN19QAudioCaptureSource19getStaticMetaObjectEv @ 458 NONAME
	_ZN19QAudioCaptureSource23activeAudioInputChangedERK7QString @ 459 NONAME
	_ZN19QAudioCaptureSource27availableAudioInputsChangedEv @ 460 NONAME
	_ZN19QAudioCaptureSourceC1EP7QObjectP21QMediaServiceProvider @ 461 NONAME
	_ZN19QAudioCaptureSourceC2EP7QObjectP21QMediaServiceProvider @ 462 NONAME
	_ZN19QAudioCaptureSourceD0Ev @ 463 NONAME
	_ZN19QAudioCaptureSourceD1Ev @ 464 NONAME
	_ZN19QAudioCaptureSourceD2Ev @ 465 NONAME
	_ZN19QMediaPlayerControl11qt_metacallEN11QMetaObject4CallEiPPv @ 466 NONAME
	_ZN19QMediaPlayerControl11qt_metacastEPKc @ 467 NONAME
	_ZN19QMediaPlayerControl12mediaChangedERK13QMediaContent @ 468 NONAME
	_ZN19QMediaPlayerControl12mutedChangedEb @ 469 NONAME
	_ZN19QMediaPlayerControl12stateChangedEN12QMediaPlayer5StateE @ 470 NONAME
	_ZN19QMediaPlayerControl13volumeChangedEi @ 471 NONAME
	_ZN19QMediaPlayerControl15durationChangedEx @ 472 NONAME
	_ZN19QMediaPlayerControl15positionChangedEx @ 473 NONAME
	_ZN19QMediaPlayerControl15seekableChangedEb @ 474 NONAME
	_ZN19QMediaPlayerControl16staticMetaObjectE @ 475 NONAME DATA 16
	_ZN19QMediaPlayerControl18mediaStatusChangedEN12QMediaPlayer11MediaStatusE @ 476 NONAME
	_ZN19QMediaPlayerControl19bufferStatusChangedEi @ 477 NONAME
	_ZN19QMediaPlayerControl19getStaticMetaObjectEv @ 478 NONAME
	_ZN19QMediaPlayerControl19playbackRateChangedEf @ 479 NONAME
	_ZN19QMediaPlayerControl21audioAvailableChangedEb @ 480 NONAME
	_ZN19QMediaPlayerControl21videoAvailableChangedEb @ 481 NONAME
	_ZN19QMediaPlayerControl30availablePlaybackRangesChangedERK15QMediaTimeRange @ 482 NONAME
	_ZN19QMediaPlayerControl5errorEiRK7QString @ 483 NONAME
	_ZN19QMediaPlayerControlC2EP7QObject @ 484 NONAME
	_ZN19QMediaPlayerControlD0Ev @ 485 NONAME
	_ZN19QMediaPlayerControlD1Ev @ 486 NONAME
	_ZN19QMediaPlayerControlD2Ev @ 487 NONAME
	_ZN19QVideoDeviceControl11qt_metacallEN11QMetaObject4CallEiPPv @ 488 NONAME
	_ZN19QVideoDeviceControl11qt_metacastEPKc @ 489 NONAME
	_ZN19QVideoDeviceControl14devicesChangedEv @ 490 NONAME
	_ZN19QVideoDeviceControl16staticMetaObjectE @ 491 NONAME DATA 16
	_ZN19QVideoDeviceControl19getStaticMetaObjectEv @ 492 NONAME
	_ZN19QVideoDeviceControl21selectedDeviceChangedERK7QString @ 493 NONAME
	_ZN19QVideoDeviceControl21selectedDeviceChangedEi @ 494 NONAME
	_ZN19QVideoDeviceControlC2EP7QObject @ 495 NONAME
	_ZN19QVideoDeviceControlD0Ev @ 496 NONAME
	_ZN19QVideoDeviceControlD1Ev @ 497 NONAME
	_ZN19QVideoDeviceControlD2Ev @ 498 NONAME
	_ZN19QVideoSurfaceFormat11setPropertyEPKcRK8QVariant @ 499 NONAME
	_ZN19QVideoSurfaceFormat11setViewportERK5QRect @ 500 NONAME
	_ZN19QVideoSurfaceFormat12setFrameRateEf @ 501 NONAME
	_ZN19QVideoSurfaceFormat12setFrameSizeERK5QSize @ 502 NONAME
	_ZN19QVideoSurfaceFormat12setFrameSizeEii @ 503 NONAME
	_ZN19QVideoSurfaceFormat18setYCbCrColorSpaceENS_15YCbCrColorSpaceE @ 504 NONAME
	_ZN19QVideoSurfaceFormat19setPixelAspectRatioERK5QSize @ 505 NONAME
	_ZN19QVideoSurfaceFormat19setPixelAspectRatioEii @ 506 NONAME
	_ZN19QVideoSurfaceFormat20setScanLineDirectionENS_9DirectionE @ 507 NONAME
	_ZN19QVideoSurfaceFormatC1ERK5QSizeN11QVideoFrame11PixelFormatEN20QAbstractVideoBuffer10HandleTypeE @ 508 NONAME
	_ZN19QVideoSurfaceFormatC1ERKS_ @ 509 NONAME
	_ZN19QVideoSurfaceFormatC1Ev @ 510 NONAME
	_ZN19QVideoSurfaceFormatC2ERK5QSizeN11QVideoFrame11PixelFormatEN20QAbstractVideoBuffer10HandleTypeE @ 511 NONAME
	_ZN19QVideoSurfaceFormatC2ERKS_ @ 512 NONAME
	_ZN19QVideoSurfaceFormatC2Ev @ 513 NONAME
	_ZN19QVideoSurfaceFormatD1Ev @ 514 NONAME
	_ZN19QVideoSurfaceFormatD2Ev @ 515 NONAME
	_ZN19QVideoSurfaceFormataSERKS_ @ 516 NONAME
	_ZN19QVideoWidgetControl10hueChangedEi @ 517 NONAME
	_ZN19QVideoWidgetControl11qt_metacallEN11QMetaObject4CallEiPPv @ 518 NONAME
	_ZN19QVideoWidgetControl11qt_metacastEPKc @ 519 NONAME
	_ZN19QVideoWidgetControl15contrastChangedEi @ 520 NONAME
	_ZN19QVideoWidgetControl16staticMetaObjectE @ 521 NONAME DATA 16
	_ZN19QVideoWidgetControl17brightnessChangedEi @ 522 NONAME
	_ZN19QVideoWidgetControl17fullScreenChangedEb @ 523 NONAME
	_ZN19QVideoWidgetControl17saturationChangedEi @ 524 NONAME
	_ZN19QVideoWidgetControl19getStaticMetaObjectEv @ 525 NONAME
	_ZN19QVideoWidgetControlC2EP7QObject @ 526 NONAME
	_ZN19QVideoWidgetControlD0Ev @ 527 NONAME
	_ZN19QVideoWidgetControlD1Ev @ 528 NONAME
	_ZN19QVideoWidgetControlD2Ev @ 529 NONAME
	_ZN19QVideoWindowControl10hueChangedEi @ 530 NONAME
	_ZN19QVideoWindowControl11qt_metacallEN11QMetaObject4CallEiPPv @ 531 NONAME
	_ZN19QVideoWindowControl11qt_metacastEPKc @ 532 NONAME
	_ZN19QVideoWindowControl15contrastChangedEi @ 533 NONAME
	_ZN19QVideoWindowControl16staticMetaObjectE @ 534 NONAME DATA 16
	_ZN19QVideoWindowControl17brightnessChangedEi @ 535 NONAME
	_ZN19QVideoWindowControl17fullScreenChangedEb @ 536 NONAME
	_ZN19QVideoWindowControl17nativeSizeChangedEv @ 537 NONAME
	_ZN19QVideoWindowControl17saturationChangedEi @ 538 NONAME
	_ZN19QVideoWindowControl19getStaticMetaObjectEv @ 539 NONAME
	_ZN19QVideoWindowControlC2EP7QObject @ 540 NONAME
	_ZN19QVideoWindowControlD0Ev @ 541 NONAME
	_ZN19QVideoWindowControlD1Ev @ 542 NONAME
	_ZN19QVideoWindowControlD2Ev @ 543 NONAME
	_ZN20QAbstractAudioOutput11qt_metacallEN11QMetaObject4CallEiPPv @ 544 NONAME
	_ZN20QAbstractAudioOutput11qt_metacastEPKc @ 545 NONAME
	_ZN20QAbstractAudioOutput12errorChangedEN6QAudio5ErrorE @ 546 NONAME
	_ZN20QAbstractAudioOutput12stateChangedEN6QAudio5StateE @ 547 NONAME
	_ZN20QAbstractAudioOutput16staticMetaObjectE @ 548 NONAME DATA 16
	_ZN20QAbstractAudioOutput19getStaticMetaObjectEv @ 549 NONAME
	_ZN20QAbstractAudioOutput6notifyEv @ 550 NONAME
	_ZN20QAbstractVideoBufferC2ENS_10HandleTypeE @ 551 NONAME
	_ZN20QAbstractVideoBufferC2ER27QAbstractVideoBufferPrivateNS_10HandleTypeE @ 552 NONAME
	_ZN20QAbstractVideoBufferD0Ev @ 553 NONAME
	_ZN20QAbstractVideoBufferD1Ev @ 554 NONAME
	_ZN20QAbstractVideoBufferD2Ev @ 555 NONAME
	_ZN20QAudioEncoderControl11qt_metacallEN11QMetaObject4CallEiPPv @ 556 NONAME
	_ZN20QAudioEncoderControl11qt_metacastEPKc @ 557 NONAME
	_ZN20QAudioEncoderControl16staticMetaObjectE @ 558 NONAME DATA 16
	_ZN20QAudioEncoderControl19getStaticMetaObjectEv @ 559 NONAME
	_ZN20QAudioEncoderControlC2EP7QObject @ 560 NONAME
	_ZN20QAudioEncoderControlD0Ev @ 561 NONAME
	_ZN20QAudioEncoderControlD1Ev @ 562 NONAME
	_ZN20QAudioEncoderControlD2Ev @ 563 NONAME
	_ZN20QImageEncoderControl11qt_metacallEN11QMetaObject4CallEiPPv @ 564 NONAME
	_ZN20QImageEncoderControl11qt_metacastEPKc @ 565 NONAME
	_ZN20QImageEncoderControl16staticMetaObjectE @ 566 NONAME DATA 16
	_ZN20QImageEncoderControl19getStaticMetaObjectEv @ 567 NONAME
	_ZN20QImageEncoderControlC2EP7QObject @ 568 NONAME
	_ZN20QImageEncoderControlD0Ev @ 569 NONAME
	_ZN20QImageEncoderControlD1Ev @ 570 NONAME
	_ZN20QImageEncoderControlD2Ev @ 571 NONAME
	_ZN20QMediaPlaylistReaderD0Ev @ 572 NONAME
	_ZN20QMediaPlaylistReaderD1Ev @ 573 NONAME
	_ZN20QMediaPlaylistReaderD2Ev @ 574 NONAME
	_ZN20QMediaPlaylistWriterD0Ev @ 575 NONAME
	_ZN20QMediaPlaylistWriterD1Ev @ 576 NONAME
	_ZN20QMediaPlaylistWriterD2Ev @ 577 NONAME
	_ZN20QMediaStreamsControl11qt_metacallEN11QMetaObject4CallEiPPv @ 578 NONAME
	_ZN20QMediaStreamsControl11qt_metacastEPKc @ 579 NONAME
	_ZN20QMediaStreamsControl14streamsChangedEv @ 580 NONAME
	_ZN20QMediaStreamsControl16staticMetaObjectE @ 581 NONAME DATA 16
	_ZN20QMediaStreamsControl19getStaticMetaObjectEv @ 582 NONAME
	_ZN20QMediaStreamsControl20activeStreamsChangedEv @ 583 NONAME
	_ZN20QMediaStreamsControlC2EP7QObject @ 584 NONAME
	_ZN20QMediaStreamsControlD0Ev @ 585 NONAME
	_ZN20QMediaStreamsControlD1Ev @ 586 NONAME
	_ZN20QMediaStreamsControlD2Ev @ 587 NONAME
	_ZN20QVideoEncoderControl11qt_metacallEN11QMetaObject4CallEiPPv @ 588 NONAME
	_ZN20QVideoEncoderControl11qt_metacastEPKc @ 589 NONAME
	_ZN20QVideoEncoderControl16staticMetaObjectE @ 590 NONAME DATA 16
	_ZN20QVideoEncoderControl19getStaticMetaObjectEv @ 591 NONAME
	_ZN20QVideoEncoderControlC2EP7QObject @ 592 NONAME
	_ZN20QVideoEncoderControlD0Ev @ 593 NONAME
	_ZN20QVideoEncoderControlD1Ev @ 594 NONAME
	_ZN20QVideoEncoderControlD2Ev @ 595 NONAME
	_ZN21QAbstractVideoSurface11qt_metacallEN11QMetaObject4CallEiPPv @ 596 NONAME
	_ZN21QAbstractVideoSurface11qt_metacastEPKc @ 597 NONAME
	_ZN21QAbstractVideoSurface13activeChangedEb @ 598 NONAME
	_ZN21QAbstractVideoSurface16staticMetaObjectE @ 599 NONAME DATA 16
	_ZN21QAbstractVideoSurface19getStaticMetaObjectEv @ 600 NONAME
	_ZN21QAbstractVideoSurface20surfaceFormatChangedERK19QVideoSurfaceFormat @ 601 NONAME
	_ZN21QAbstractVideoSurface23supportedFormatsChangedEv @ 602 NONAME
	_ZN21QAbstractVideoSurface4stopEv @ 603 NONAME
	_ZN21QAbstractVideoSurface5startERK19QVideoSurfaceFormat @ 604 NONAME
	_ZN21QAbstractVideoSurface8setErrorENS_5ErrorE @ 605 NONAME
	_ZN21QAbstractVideoSurfaceC2EP7QObject @ 606 NONAME
	_ZN21QAbstractVideoSurfaceC2ER28QAbstractVideoSurfacePrivateP7QObject @ 607 NONAME
	_ZN21QAbstractVideoSurfaceD0Ev @ 608 NONAME
	_ZN21QAbstractVideoSurfaceD1Ev @ 609 NONAME
	_ZN21QAbstractVideoSurfaceD2Ev @ 610 NONAME
	_ZN21QAudioEncoderSettings10setBitRateEi @ 611 NONAME
	_ZN21QAudioEncoderSettings10setQualityEN15QtMultimediaKit15EncodingQualityE @ 612 NONAME
	_ZN21QAudioEncoderSettings13setSampleRateEi @ 613 NONAME
	_ZN21QAudioEncoderSettings15setChannelCountEi @ 614 NONAME
	_ZN21QAudioEncoderSettings15setEncodingModeEN15QtMultimediaKit12EncodingModeE @ 615 NONAME
	_ZN21QAudioEncoderSettings8setCodecERK7QString @ 616 NONAME
	_ZN21QAudioEncoderSettingsC1ERKS_ @ 617 NONAME
	_ZN21QAudioEncoderSettingsC1Ev @ 618 NONAME
	_ZN21QAudioEncoderSettingsC2ERKS_ @ 619 NONAME
	_ZN21QAudioEncoderSettingsC2Ev @ 620 NONAME
	_ZN21QAudioEncoderSettingsD1Ev @ 621 NONAME
	_ZN21QAudioEncoderSettingsD2Ev @ 622 NONAME
	_ZN21QAudioEncoderSettingsaSERKS_ @ 623 NONAME
	_ZN21QImageEncoderSettings10setQualityEN15QtMultimediaKit15EncodingQualityE @ 624 NONAME
	_ZN21QImageEncoderSettings13setResolutionERK5QSize @ 625 NONAME
	_ZN21QImageEncoderSettings13setResolutionEii @ 626 NONAME
	_ZN21QImageEncoderSettings8setCodecERK7QString @ 627 NONAME
	_ZN21QImageEncoderSettingsC1ERKS_ @ 628 NONAME
	_ZN21QImageEncoderSettingsC1Ev @ 629 NONAME
	_ZN21QImageEncoderSettingsC2ERKS_ @ 630 NONAME
	_ZN21QImageEncoderSettingsC2Ev @ 631 NONAME
	_ZN21QImageEncoderSettingsD1Ev @ 632 NONAME
	_ZN21QImageEncoderSettingsD2Ev @ 633 NONAME
	_ZN21QImageEncoderSettingsaSERKS_ @ 634 NONAME
	_ZN21QMediaPlaylistControl11qt_metacallEN11QMetaObject4CallEiPPv @ 635 NONAME
	_ZN21QMediaPlaylistControl11qt_metacastEPKc @ 636 NONAME
	_ZN21QMediaPlaylistControl16staticMetaObjectE @ 637 NONAME DATA 16
	_ZN21QMediaPlaylistControl19currentIndexChangedEi @ 638 NONAME
	_ZN21QMediaPlaylistControl19currentMediaChangedERK13QMediaContent @ 639 NONAME
	_ZN21QMediaPlaylistControl19getStaticMetaObjectEv @ 640 NONAME
	_ZN21QMediaPlaylistControl19playbackModeChangedEN14QMediaPlaylist12PlaybackModeE @ 641 NONAME
	_ZN21QMediaPlaylistControl23playlistProviderChangedEv @ 642 NONAME
	_ZN21QMediaPlaylistControlC2EP7QObject @ 643 NONAME
	_ZN21QMediaPlaylistControlD0Ev @ 644 NONAME
	_ZN21QMediaPlaylistControlD1Ev @ 645 NONAME
	_ZN21QMediaPlaylistControlD2Ev @ 646 NONAME
	_ZN21QMediaRecorderControl11qt_metacallEN11QMetaObject4CallEiPPv @ 647 NONAME
	_ZN21QMediaRecorderControl11qt_metacastEPKc @ 648 NONAME
	_ZN21QMediaRecorderControl12mutedChangedEb @ 649 NONAME
	_ZN21QMediaRecorderControl12stateChangedEN14QMediaRecorder5StateE @ 650 NONAME
	_ZN21QMediaRecorderControl15durationChangedEx @ 651 NONAME
	_ZN21QMediaRecorderControl16staticMetaObjectE @ 652 NONAME DATA 16
	_ZN21QMediaRecorderControl19getStaticMetaObjectEv @ 653 NONAME
	_ZN21QMediaRecorderControl5errorEiRK7QString @ 654 NONAME
	_ZN21QMediaRecorderControlC2EP7QObject @ 655 NONAME
	_ZN21QMediaRecorderControlD0Ev @ 656 NONAME
	_ZN21QMediaRecorderControlD1Ev @ 657 NONAME
	_ZN21QMediaRecorderControlD2Ev @ 658 NONAME
	_ZN21QMediaServiceProvider11qt_metacallEN11QMetaObject4CallEiPPv @ 659 NONAME
	_ZN21QMediaServiceProvider11qt_metacastEPKc @ 660 NONAME
	_ZN21QMediaServiceProvider16staticMetaObjectE @ 661 NONAME DATA 16
	_ZN21QMediaServiceProvider17deviceDescriptionERK10QByteArrayS2_ @ 662 NONAME
	_ZN21QMediaServiceProvider19getStaticMetaObjectEv @ 663 NONAME
	_ZN21QMediaServiceProvider22defaultServiceProviderEv @ 664 NONAME
	_ZN21QVideoEncoderSettings10setBitRateEi @ 665 NONAME
	_ZN21QVideoEncoderSettings10setQualityEN15QtMultimediaKit15EncodingQualityE @ 666 NONAME
	_ZN21QVideoEncoderSettings12setFrameRateEf @ 667 NONAME
	_ZN21QVideoEncoderSettings13setResolutionERK5QSize @ 668 NONAME
	_ZN21QVideoEncoderSettings13setResolutionEii @ 669 NONAME
	_ZN21QVideoEncoderSettings15setEncodingModeEN15QtMultimediaKit12EncodingModeE @ 670 NONAME
	_ZN21QVideoEncoderSettings8setCodecERK7QString @ 671 NONAME
	_ZN21QVideoEncoderSettingsC1ERKS_ @ 672 NONAME
	_ZN21QVideoEncoderSettingsC1Ev @ 673 NONAME
	_ZN21QVideoEncoderSettingsC2ERKS_ @ 674 NONAME
	_ZN21QVideoEncoderSettingsC2Ev @ 675 NONAME
	_ZN21QVideoEncoderSettingsD1Ev @ 676 NONAME
	_ZN21QVideoEncoderSettingsD2Ev @ 677 NONAME
	_ZN21QVideoEncoderSettingsaSERKS_ @ 678 NONAME
	_ZN21QVideoRendererControl11qt_metacallEN11QMetaObject4CallEiPPv @ 679 NONAME
	_ZN21QVideoRendererControl11qt_metacastEPKc @ 680 NONAME
	_ZN21QVideoRendererControl16staticMetaObjectE @ 681 NONAME DATA 16
	_ZN21QVideoRendererControl19getStaticMetaObjectEv @ 682 NONAME
	_ZN21QVideoRendererControlC2EP7QObject @ 683 NONAME
	_ZN21QVideoRendererControlD0Ev @ 684 NONAME
	_ZN21QVideoRendererControlD1Ev @ 685 NONAME
	_ZN21QVideoRendererControlD2Ev @ 686 NONAME
	_ZN22QAudioEndpointSelector11qt_metacallEN11QMetaObject4CallEiPPv @ 687 NONAME
	_ZN22QAudioEndpointSelector11qt_metacastEPKc @ 688 NONAME
	_ZN22QAudioEndpointSelector16staticMetaObjectE @ 689 NONAME DATA 16
	_ZN22QAudioEndpointSelector19getStaticMetaObjectEv @ 690 NONAME
	_ZN22QAudioEndpointSelector21activeEndpointChangedERK7QString @ 691 NONAME
	_ZN22QAudioEndpointSelector25availableEndpointsChangedEv @ 692 NONAME
	_ZN22QAudioEndpointSelectorC2EP7QObject @ 693 NONAME
	_ZN22QAudioEndpointSelectorD0Ev @ 694 NONAME
	_ZN22QAudioEndpointSelectorD1Ev @ 695 NONAME
	_ZN22QAudioEndpointSelectorD2Ev @ 696 NONAME
	_ZN22QMediaContainerControl11qt_metacallEN11QMetaObject4CallEiPPv @ 697 NONAME
	_ZN22QMediaContainerControl11qt_metacastEPKc @ 698 NONAME
	_ZN22QMediaContainerControl16staticMetaObjectE @ 699 NONAME DATA 16
	_ZN22QMediaContainerControl19getStaticMetaObjectEv @ 700 NONAME
	_ZN22QMediaContainerControlC2EP7QObject @ 701 NONAME
	_ZN22QMediaContainerControlD0Ev @ 702 NONAME
	_ZN22QMediaContainerControlD1Ev @ 703 NONAME
	_ZN22QMediaContainerControlD2Ev @ 704 NONAME
	_ZN22QMediaPlaylistIOPlugin11qt_metacallEN11QMetaObject4CallEiPPv @ 705 NONAME
	_ZN22QMediaPlaylistIOPlugin11qt_metacastEPKc @ 706 NONAME
	_ZN22QMediaPlaylistIOPlugin16staticMetaObjectE @ 707 NONAME DATA 16
	_ZN22QMediaPlaylistIOPlugin19getStaticMetaObjectEv @ 708 NONAME
	_ZN22QMediaPlaylistIOPluginC2EP7QObject @ 709 NONAME
	_ZN22QMediaPlaylistIOPluginD0Ev @ 710 NONAME
	_ZN22QMediaPlaylistIOPluginD1Ev @ 711 NONAME
	_ZN22QMediaPlaylistIOPluginD2Ev @ 712 NONAME
	_ZN22QMediaPlaylistProvider10loadFailedEN14QMediaPlaylist5ErrorERK7QString @ 713 NONAME
	_ZN22QMediaPlaylistProvider11insertMediaEiRK13QMediaContent @ 714 NONAME
	_ZN22QMediaPlaylistProvider11insertMediaEiRK5QListI13QMediaContentE @ 715 NONAME
	_ZN22QMediaPlaylistProvider11qt_metacallEN11QMetaObject4CallEiPPv @ 716 NONAME
	_ZN22QMediaPlaylistProvider11qt_metacastEPKc @ 717 NONAME
	_ZN22QMediaPlaylistProvider11removeMediaEi @ 718 NONAME
	_ZN22QMediaPlaylistProvider11removeMediaEii @ 719 NONAME
	_ZN22QMediaPlaylistProvider12mediaChangedEii @ 720 NONAME
	_ZN22QMediaPlaylistProvider12mediaRemovedEii @ 721 NONAME
	_ZN22QMediaPlaylistProvider13mediaInsertedEii @ 722 NONAME
	_ZN22QMediaPlaylistProvider16staticMetaObjectE @ 723 NONAME DATA 16
	_ZN22QMediaPlaylistProvider19getStaticMetaObjectEv @ 724 NONAME
	_ZN22QMediaPlaylistProvider21mediaAboutToBeRemovedEii @ 725 NONAME
	_ZN22QMediaPlaylistProvider22mediaAboutToBeInsertedEii @ 726 NONAME
	_ZN22QMediaPlaylistProvider4loadEP9QIODevicePKc @ 727 NONAME
	_ZN22QMediaPlaylistProvider4loadERK4QUrlPKc @ 728 NONAME
	_ZN22QMediaPlaylistProvider4saveEP9QIODevicePKc @ 729 NONAME
	_ZN22QMediaPlaylistProvider4saveERK4QUrlPKc @ 730 NONAME
	_ZN22QMediaPlaylistProvider5clearEv @ 731 NONAME
	_ZN22QMediaPlaylistProvider6loadedEv @ 732 NONAME
	_ZN22QMediaPlaylistProvider7shuffleEv @ 733 NONAME
	_ZN22QMediaPlaylistProvider8addMediaERK13QMediaContent @ 734 NONAME
	_ZN22QMediaPlaylistProvider8addMediaERK5QListI13QMediaContentE @ 735 NONAME
	_ZN22QMediaPlaylistProviderC2EP7QObject @ 736 NONAME
	_ZN22QMediaPlaylistProviderC2ER29QMediaPlaylistProviderPrivateP7QObject @ 737 NONAME
	_ZN22QMediaPlaylistProviderD0Ev @ 738 NONAME
	_ZN22QMediaPlaylistProviderD1Ev @ 739 NONAME
	_ZN22QMediaPlaylistProviderD2Ev @ 740 NONAME
	_ZN22QMetaDataReaderControl11qt_metacallEN11QMetaObject4CallEiPPv @ 741 NONAME
	_ZN22QMetaDataReaderControl11qt_metacastEPKc @ 742 NONAME
	_ZN22QMetaDataReaderControl15metaDataChangedEv @ 743 NONAME
	_ZN22QMetaDataReaderControl16staticMetaObjectE @ 744 NONAME DATA 16
	_ZN22QMetaDataReaderControl19getStaticMetaObjectEv @ 745 NONAME
	_ZN22QMetaDataReaderControl24metaDataAvailableChangedEb @ 746 NONAME
	_ZN22QMetaDataReaderControlC2EP7QObject @ 747 NONAME
	_ZN22QMetaDataReaderControlD0Ev @ 748 NONAME
	_ZN22QMetaDataReaderControlD1Ev @ 749 NONAME
	_ZN22QMetaDataReaderControlD2Ev @ 750 NONAME
	_ZN22QMetaDataWriterControl11qt_metacallEN11QMetaObject4CallEiPPv @ 751 NONAME
	_ZN22QMetaDataWriterControl11qt_metacastEPKc @ 752 NONAME
	_ZN22QMetaDataWriterControl15metaDataChangedEv @ 753 NONAME
	_ZN22QMetaDataWriterControl15writableChangedEb @ 754 NONAME
	_ZN22QMetaDataWriterControl16staticMetaObjectE @ 755 NONAME DATA 16
	_ZN22QMetaDataWriterControl19getStaticMetaObjectEv @ 756 NONAME
	_ZN22QMetaDataWriterControl24metaDataAvailableChangedEb @ 757 NONAME
	_ZN22QMetaDataWriterControlC2EP7QObject @ 758 NONAME
	_ZN22QMetaDataWriterControlD0Ev @ 759 NONAME
	_ZN22QMetaDataWriterControlD1Ev @ 760 NONAME
	_ZN22QMetaDataWriterControlD2Ev @ 761 NONAME
	_ZN23QMediaBindableInterfaceD0Ev @ 762 NONAME
	_ZN23QMediaBindableInterfaceD1Ev @ 763 NONAME
	_ZN23QMediaBindableInterfaceD2Ev @ 764 NONAME
	_ZN23QMediaPlaylistNavigator11qt_metacallEN11QMetaObject4CallEiPPv @ 765 NONAME
	_ZN23QMediaPlaylistNavigator11qt_metacastEPKc @ 766 NONAME
	_ZN23QMediaPlaylistNavigator11setPlaylistEP22QMediaPlaylistProvider @ 767 NONAME
	_ZN23QMediaPlaylistNavigator15setPlaybackModeEN14QMediaPlaylist12PlaybackModeE @ 768 NONAME
	_ZN23QMediaPlaylistNavigator16staticMetaObjectE @ 769 NONAME DATA 16
	_ZN23QMediaPlaylistNavigator19currentIndexChangedEi @ 770 NONAME
	_ZN23QMediaPlaylistNavigator19getStaticMetaObjectEv @ 771 NONAME
	_ZN23QMediaPlaylistNavigator19playbackModeChangedEN14QMediaPlaylist12PlaybackModeE @ 772 NONAME
	_ZN23QMediaPlaylistNavigator23surroundingItemsChangedEv @ 773 NONAME
	_ZN23QMediaPlaylistNavigator4jumpEi @ 774 NONAME
	_ZN23QMediaPlaylistNavigator4nextEv @ 775 NONAME
	_ZN23QMediaPlaylistNavigator8previousEv @ 776 NONAME
	_ZN23QMediaPlaylistNavigator9activatedERK13QMediaContent @ 777 NONAME
	_ZN23QMediaPlaylistNavigatorC1EP22QMediaPlaylistProviderP7QObject @ 778 NONAME
	_ZN23QMediaPlaylistNavigatorC2EP22QMediaPlaylistProviderP7QObject @ 779 NONAME
	_ZN23QMediaPlaylistNavigatorD0Ev @ 780 NONAME
	_ZN23QMediaPlaylistNavigatorD1Ev @ 781 NONAME
	_ZN23QMediaPlaylistNavigatorD2Ev @ 782 NONAME
	_ZN24QAbstractAudioDeviceInfo11qt_metacallEN11QMetaObject4CallEiPPv @ 783 NONAME
	_ZN24QAbstractAudioDeviceInfo11qt_metacastEPKc @ 784 NONAME
	_ZN24QAbstractAudioDeviceInfo16staticMetaObjectE @ 785 NONAME DATA 16
	_ZN24QAbstractAudioDeviceInfo19getStaticMetaObjectEv @ 786 NONAME
	_ZN25QMediaServiceProviderHintC1E6QFlagsINS_7FeatureEE @ 787 NONAME
	_ZN25QMediaServiceProviderHintC1ERK10QByteArray @ 788 NONAME
	_ZN25QMediaServiceProviderHintC1ERK7QStringRK11QStringList @ 789 NONAME
	_ZN25QMediaServiceProviderHintC1ERKS_ @ 790 NONAME
	_ZN25QMediaServiceProviderHintC1Ev @ 791 NONAME
	_ZN25QMediaServiceProviderHintC2E6QFlagsINS_7FeatureEE @ 792 NONAME
	_ZN25QMediaServiceProviderHintC2ERK10QByteArray @ 793 NONAME
	_ZN25QMediaServiceProviderHintC2ERK7QStringRK11QStringList @ 794 NONAME
	_ZN25QMediaServiceProviderHintC2ERKS_ @ 795 NONAME
	_ZN25QMediaServiceProviderHintC2Ev @ 796 NONAME
	_ZN25QMediaServiceProviderHintD1Ev @ 797 NONAME
	_ZN25QMediaServiceProviderHintD2Ev @ 798 NONAME
	_ZN25QMediaServiceProviderHintaSERKS_ @ 799 NONAME
	_ZN27QLocalMediaPlaylistProvider11insertMediaEiRK13QMediaContent @ 800 NONAME
	_ZN27QLocalMediaPlaylistProvider11insertMediaEiRK5QListI13QMediaContentE @ 801 NONAME
	_ZN27QLocalMediaPlaylistProvider11qt_metacallEN11QMetaObject4CallEiPPv @ 802 NONAME
	_ZN27QLocalMediaPlaylistProvider11qt_metacastEPKc @ 803 NONAME
	_ZN27QLocalMediaPlaylistProvider11removeMediaEi @ 804 NONAME
	_ZN27QLocalMediaPlaylistProvider11removeMediaEii @ 805 NONAME
	_ZN27QLocalMediaPlaylistProvider16staticMetaObjectE @ 806 NONAME DATA 16
	_ZN27QLocalMediaPlaylistProvider19getStaticMetaObjectEv @ 807 NONAME
	_ZN27QLocalMediaPlaylistProvider5clearEv @ 808 NONAME
	_ZN27QLocalMediaPlaylistProvider7shuffleEv @ 809 NONAME
	_ZN27QLocalMediaPlaylistProvider8addMediaERK13QMediaContent @ 810 NONAME
	_ZN27QLocalMediaPlaylistProvider8addMediaERK5QListI13QMediaContentE @ 811 NONAME
	_ZN27QLocalMediaPlaylistProviderC1EP7QObject @ 812 NONAME
	_ZN27QLocalMediaPlaylistProviderC2EP7QObject @ 813 NONAME
	_ZN27QLocalMediaPlaylistProviderD0Ev @ 814 NONAME
	_ZN27QLocalMediaPlaylistProviderD1Ev @ 815 NONAME
	_ZN27QLocalMediaPlaylistProviderD2Ev @ 816 NONAME
	_ZN27QMediaPlaylistSourceControl11qt_metacallEN11QMetaObject4CallEiPPv @ 817 NONAME
	_ZN27QMediaPlaylistSourceControl11qt_metacastEPKc @ 818 NONAME
	_ZN27QMediaPlaylistSourceControl15playlistChangedEP14QMediaPlaylist @ 819 NONAME
	_ZN27QMediaPlaylistSourceControl16staticMetaObjectE @ 820 NONAME DATA 16
	_ZN27QMediaPlaylistSourceControl19getStaticMetaObjectEv @ 821 NONAME
	_ZN27QMediaPlaylistSourceControlC2EP7QObject @ 822 NONAME
	_ZN27QMediaPlaylistSourceControlD0Ev @ 823 NONAME
	_ZN27QMediaPlaylistSourceControlD1Ev @ 824 NONAME
	_ZN27QMediaPlaylistSourceControlD2Ev @ 825 NONAME
	_ZN27QMediaServiceProviderPlugin11qt_metacallEN11QMetaObject4CallEiPPv @ 826 NONAME
	_ZN27QMediaServiceProviderPlugin11qt_metacastEPKc @ 827 NONAME
	_ZN27QMediaServiceProviderPlugin16staticMetaObjectE @ 828 NONAME DATA 16
	_ZN27QMediaServiceProviderPlugin19getStaticMetaObjectEv @ 829 NONAME
	_ZNK11QAudioInput10bufferSizeEv @ 830 NONAME
	_ZNK11QAudioInput10bytesReadyEv @ 831 NONAME
	_ZNK11QAudioInput10metaObjectEv @ 832 NONAME
	_ZNK11QAudioInput10periodSizeEv @ 833 NONAME
	_ZNK11QAudioInput12elapsedUSecsEv @ 834 NONAME
	_ZNK11QAudioInput14notifyIntervalEv @ 835 NONAME
	_ZNK11QAudioInput14processedUSecsEv @ 836 NONAME
	_ZNK11QAudioInput5errorEv @ 837 NONAME
	_ZNK11QAudioInput5stateEv @ 838 NONAME
	_ZNK11QAudioInput6formatEv @ 839 NONAME
	_ZNK11QRadioTuner10metaObjectEv @ 840 NONAME
	_ZNK11QRadioTuner10stereoModeEv @ 841 NONAME
	_ZNK11QRadioTuner11errorStringEv @ 842 NONAME
	_ZNK11QRadioTuner11isAvailableEv @ 843 NONAME
	_ZNK11QRadioTuner11isSearchingEv @ 844 NONAME
	_ZNK11QRadioTuner13frequencyStepENS_4BandE @ 845 NONAME
	_ZNK11QRadioTuner14frequencyRangeENS_4BandE @ 846 NONAME
	_ZNK11QRadioTuner14signalStrengthEv @ 847 NONAME
	_ZNK11QRadioTuner15isBandSupportedENS_4BandE @ 848 NONAME
	_ZNK11QRadioTuner17availabilityErrorEv @ 849 NONAME
	_ZNK11QRadioTuner4bandEv @ 850 NONAME
	_ZNK11QRadioTuner5errorEv @ 851 NONAME
	_ZNK11QRadioTuner5stateEv @ 852 NONAME
	_ZNK11QRadioTuner6volumeEv @ 853 NONAME
	_ZNK11QRadioTuner7isMutedEv @ 854 NONAME
	_ZNK11QRadioTuner8isStereoEv @ 855 NONAME
	_ZNK11QRadioTuner9frequencyEv @ 856 NONAME
	_ZNK11QVideoFrame10handleTypeEv @ 857 NONAME
	_ZNK11QVideoFrame10isReadableEv @ 858 NONAME
	_ZNK11QVideoFrame10isWritableEv @ 859 NONAME
	_ZNK11QVideoFrame11mappedBytesEv @ 860 NONAME
	_ZNK11QVideoFrame11pixelFormatEv @ 861 NONAME
	_ZNK11QVideoFrame12bytesPerLineEv @ 862 NONAME
	_ZNK11QVideoFrame4bitsEv @ 863 NONAME
	_ZNK11QVideoFrame4sizeEv @ 864 NONAME
	_ZNK11QVideoFrame5widthEv @ 865 NONAME
	_ZNK11QVideoFrame6handleEv @ 866 NONAME
	_ZNK11QVideoFrame6heightEv @ 867 NONAME
	_ZNK11QVideoFrame7endTimeEv @ 868 NONAME
	_ZNK11QVideoFrame7isValidEv @ 869 NONAME
	_ZNK11QVideoFrame7mapModeEv @ 870 NONAME
	_ZNK11QVideoFrame8isMappedEv @ 871 NONAME
	_ZNK11QVideoFrame9fieldTypeEv @ 872 NONAME
	_ZNK11QVideoFrame9startTimeEv @ 873 NONAME
	_ZNK12QAudioFormat10sampleRateEv @ 874 NONAME
	_ZNK12QAudioFormat10sampleSizeEv @ 875 NONAME
	_ZNK12QAudioFormat10sampleTypeEv @ 876 NONAME
	_ZNK12QAudioFormat12channelCountEv @ 877 NONAME
	_ZNK12QAudioFormat5codecEv @ 878 NONAME
	_ZNK12QAudioFormat7isValidEv @ 879 NONAME
	_ZNK12QAudioFormat8channelsEv @ 880 NONAME
	_ZNK12QAudioFormat9byteOrderEv @ 881 NONAME
	_ZNK12QAudioFormat9frequencyEv @ 882 NONAME
	_ZNK12QAudioFormateqERKS_ @ 883 NONAME
	_ZNK12QAudioFormatneERKS_ @ 884 NONAME
	_ZNK12QAudioOutput10bufferSizeEv @ 885 NONAME
	_ZNK12QAudioOutput10metaObjectEv @ 886 NONAME
	_ZNK12QAudioOutput10periodSizeEv @ 887 NONAME
	_ZNK12QAudioOutput12elapsedUSecsEv @ 888 NONAME
	_ZNK12QAudioOutput14notifyIntervalEv @ 889 NONAME
	_ZNK12QAudioOutput14processedUSecsEv @ 890 NONAME
	_ZNK12QAudioOutput5errorEv @ 891 NONAME
	_ZNK12QAudioOutput5stateEv @ 892 NONAME
	_ZNK12QAudioOutput6formatEv @ 893 NONAME
	_ZNK12QAudioOutput9bytesFreeEv @ 894 NONAME
	_ZNK12QMediaObject10metaObjectEv @ 895 NONAME
	_ZNK12QMediaObject11isAvailableEv @ 896 NONAME
	_ZNK12QMediaObject14notifyIntervalEv @ 897 NONAME
	_ZNK12QMediaObject16extendedMetaDataERK7QString @ 898 NONAME
	_ZNK12QMediaObject17availabilityErrorEv @ 899 NONAME
	_ZNK12QMediaObject17availableMetaDataEv @ 900 NONAME
	_ZNK12QMediaObject19isMetaDataAvailableEv @ 901 NONAME
	_ZNK12QMediaObject25availableExtendedMetaDataEv @ 902 NONAME
	_ZNK12QMediaObject7serviceEv @ 903 NONAME
	_ZNK12QMediaObject8metaDataEN15QtMultimediaKit8MetaDataE @ 904 NONAME
	_ZNK12QMediaPlayer10isSeekableEv @ 905 NONAME
	_ZNK12QMediaPlayer10metaObjectEv @ 906 NONAME
	_ZNK12QMediaPlayer11errorStringEv @ 907 NONAME
	_ZNK12QMediaPlayer11mediaStatusEv @ 908 NONAME
	_ZNK12QMediaPlayer11mediaStreamEv @ 909 NONAME
	_ZNK12QMediaPlayer12bufferStatusEv @ 910 NONAME
	_ZNK12QMediaPlayer12playbackRateEv @ 911 NONAME
	_ZNK12QMediaPlayer16isAudioAvailableEv @ 912 NONAME
	_ZNK12QMediaPlayer16isVideoAvailableEv @ 913 NONAME
	_ZNK12QMediaPlayer5errorEv @ 914 NONAME
	_ZNK12QMediaPlayer5mediaEv @ 915 NONAME
	_ZNK12QMediaPlayer5stateEv @ 916 NONAME
	_ZNK12QMediaPlayer6volumeEv @ 917 NONAME
	_ZNK12QMediaPlayer7isMutedEv @ 918 NONAME
	_ZNK12QMediaPlayer8durationEv @ 919 NONAME
	_ZNK12QMediaPlayer8playlistEv @ 920 NONAME
	_ZNK12QMediaPlayer8positionEv @ 921 NONAME
	_ZNK12QSoundEffect10metaObjectEv @ 922 NONAME
	_ZNK12QSoundEffect5loopsEv @ 923 NONAME ABSENT
	_ZNK12QSoundEffect6sourceEv @ 924 NONAME
	_ZNK12QSoundEffect6volumeEv @ 925 NONAME
	_ZNK12QSoundEffect7isMutedEv @ 926 NONAME
	_ZNK12QVideoWidget10brightnessEv @ 927 NONAME
	_ZNK12QVideoWidget10metaObjectEv @ 928 NONAME
	_ZNK12QVideoWidget10saturationEv @ 929 NONAME
	_ZNK12QVideoWidget11mediaObjectEv @ 930 NONAME
	_ZNK12QVideoWidget15aspectRatioModeEv @ 931 NONAME
	_ZNK12QVideoWidget3hueEv @ 932 NONAME
	_ZNK12QVideoWidget8contrastEv @ 933 NONAME
	_ZNK12QVideoWidget8sizeHintEv @ 934 NONAME
	_ZNK13QMediaContent12canonicalUrlEv @ 935 NONAME
	_ZNK13QMediaContent16canonicalRequestEv @ 936 NONAME
	_ZNK13QMediaContent17canonicalResourceEv @ 937 NONAME
	_ZNK13QMediaContent6isNullEv @ 938 NONAME
	_ZNK13QMediaContent9resourcesEv @ 939 NONAME
	_ZNK13QMediaContenteqERKS_ @ 940 NONAME
	_ZNK13QMediaContentneERKS_ @ 941 NONAME
	_ZNK13QMediaControl10metaObjectEv @ 942 NONAME
	_ZNK13QMediaService10metaObjectEv @ 943 NONAME
	_ZNK14QMediaPlaylist10isReadOnlyEv @ 944 NONAME
	_ZNK14QMediaPlaylist10mediaCountEv @ 945 NONAME
	_ZNK14QMediaPlaylist10metaObjectEv @ 946 NONAME
	_ZNK14QMediaPlaylist11errorStringEv @ 947 NONAME
	_ZNK14QMediaPlaylist11mediaObjectEv @ 948 NONAME
	_ZNK14QMediaPlaylist12currentIndexEv @ 949 NONAME
	_ZNK14QMediaPlaylist12currentMediaEv @ 950 NONAME
	_ZNK14QMediaPlaylist12playbackModeEv @ 951 NONAME
	_ZNK14QMediaPlaylist13previousIndexEi @ 952 NONAME
	_ZNK14QMediaPlaylist5errorEv @ 953 NONAME
	_ZNK14QMediaPlaylist5mediaEi @ 954 NONAME
	_ZNK14QMediaPlaylist7isEmptyEv @ 955 NONAME
	_ZNK14QMediaPlaylist9nextIndexEi @ 956 NONAME
	_ZNK14QMediaRecorder10metaObjectEv @ 957 NONAME
	_ZNK14QMediaRecorder11errorStringEv @ 958 NONAME
	_ZNK14QMediaRecorder11isAvailableEv @ 959 NONAME
	_ZNK14QMediaRecorder11mediaObjectEv @ 960 NONAME
	_ZNK14QMediaRecorder13audioSettingsEv @ 961 NONAME
	_ZNK14QMediaRecorder13videoSettingsEv @ 962 NONAME
	_ZNK14QMediaRecorder14outputLocationEv @ 963 NONAME
	_ZNK14QMediaRecorder16extendedMetaDataERK7QString @ 964 NONAME
	_ZNK14QMediaRecorder17availabilityErrorEv @ 965 NONAME
	_ZNK14QMediaRecorder17availableMetaDataEv @ 966 NONAME
	_ZNK14QMediaRecorder17containerMimeTypeEv @ 967 NONAME
	_ZNK14QMediaRecorder18isMetaDataWritableEv @ 968 NONAME
	_ZNK14QMediaRecorder19isMetaDataAvailableEv @ 969 NONAME
	_ZNK14QMediaRecorder19supportedContainersEv @ 970 NONAME
	_ZNK14QMediaRecorder19supportedFrameRatesERK21QVideoEncoderSettingsPb @ 971 NONAME
	_ZNK14QMediaRecorder20containerDescriptionERK7QString @ 972 NONAME
	_ZNK14QMediaRecorder20supportedAudioCodecsEv @ 973 NONAME
	_ZNK14QMediaRecorder20supportedResolutionsERK21QVideoEncoderSettingsPb @ 974 NONAME
	_ZNK14QMediaRecorder20supportedVideoCodecsEv @ 975 NONAME
	_ZNK14QMediaRecorder21audioCodecDescriptionERK7QString @ 976 NONAME
	_ZNK14QMediaRecorder21videoCodecDescriptionERK7QString @ 977 NONAME
	_ZNK14QMediaRecorder25availableExtendedMetaDataEv @ 978 NONAME
	_ZNK14QMediaRecorder25supportedAudioSampleRatesERK21QAudioEncoderSettingsPb @ 979 NONAME
	_ZNK14QMediaRecorder5errorEv @ 980 NONAME
	_ZNK14QMediaRecorder5stateEv @ 981 NONAME
	_ZNK14QMediaRecorder7isMutedEv @ 982 NONAME
	_ZNK14QMediaRecorder8durationEv @ 983 NONAME
	_ZNK14QMediaRecorder8metaDataEN15QtMultimediaKit8MetaDataE @ 984 NONAME
	_ZNK14QMediaResource10audioCodecEv @ 985 NONAME
	_ZNK14QMediaResource10resolutionEv @ 986 NONAME
	_ZNK14QMediaResource10sampleRateEv @ 987 NONAME
	_ZNK14QMediaResource10videoCodecEv @ 988 NONAME
	_ZNK14QMediaResource12audioBitRateEv @ 989 NONAME
	_ZNK14QMediaResource12channelCountEv @ 990 NONAME
	_ZNK14QMediaResource12videoBitRateEv @ 991 NONAME
	_ZNK14QMediaResource3urlEv @ 992 NONAME
	_ZNK14QMediaResource6isNullEv @ 993 NONAME
	_ZNK14QMediaResource7requestEv @ 994 NONAME
	_ZNK14QMediaResource8dataSizeEv @ 995 NONAME
	_ZNK14QMediaResource8languageEv @ 996 NONAME
	_ZNK14QMediaResource8mimeTypeEv @ 997 NONAME
	_ZNK14QMediaResourceeqERKS_ @ 998 NONAME
	_ZNK14QMediaResourceneERKS_ @ 999 NONAME
	_ZNK15QMediaTimeRange10latestTimeEv @ 1000 NONAME
	_ZNK15QMediaTimeRange12earliestTimeEv @ 1001 NONAME
	_ZNK15QMediaTimeRange12isContinuousEv @ 1002 NONAME
	_ZNK15QMediaTimeRange7isEmptyEv @ 1003 NONAME
	_ZNK15QMediaTimeRange8containsEx @ 1004 NONAME
	_ZNK15QMediaTimeRange9intervalsEv @ 1005 NONAME
	_ZNK16QAudioDeviceInfo10deviceNameEv @ 1006 NONAME
	_ZNK16QAudioDeviceInfo13nearestFormatERK12QAudioFormat @ 1007 NONAME
	_ZNK16QAudioDeviceInfo15preferredFormatEv @ 1008 NONAME
	_ZNK16QAudioDeviceInfo15supportedCodecsEv @ 1009 NONAME
	_ZNK16QAudioDeviceInfo17isFormatSupportedERK12QAudioFormat @ 1010 NONAME
	_ZNK16QAudioDeviceInfo17supportedChannelsEv @ 1011 NONAME
	_ZNK16QAudioDeviceInfo19supportedByteOrdersEv @ 1012 NONAME
	_ZNK16QAudioDeviceInfo20supportedFrequenciesEv @ 1013 NONAME
	_ZNK16QAudioDeviceInfo20supportedSampleRatesEv @ 1014 NONAME
	_ZNK16QAudioDeviceInfo20supportedSampleSizesEv @ 1015 NONAME
	_ZNK16QAudioDeviceInfo20supportedSampleTypesEv @ 1016 NONAME
	_ZNK16QAudioDeviceInfo22supportedChannelCountsEv @ 1017 NONAME
	_ZNK16QAudioDeviceInfo4modeEv @ 1018 NONAME
	_ZNK16QAudioDeviceInfo5realmEv @ 1019 NONAME
	_ZNK16QAudioDeviceInfo6handleEv @ 1020 NONAME
	_ZNK16QAudioDeviceInfo6isNullEv @ 1021 NONAME
	_ZNK17QImageVideoBuffer7mapModeEv @ 1022 NONAME
	_ZNK17QMediaImageViewer10metaObjectEv @ 1023 NONAME
	_ZNK17QMediaImageViewer11elapsedTimeEv @ 1024 NONAME
	_ZNK17QMediaImageViewer11mediaStatusEv @ 1025 NONAME
	_ZNK17QMediaImageViewer5mediaEv @ 1026 NONAME
	_ZNK17QMediaImageViewer5stateEv @ 1027 NONAME
	_ZNK17QMediaImageViewer7timeoutEv @ 1028 NONAME
	_ZNK18QAudioSystemPlugin10metaObjectEv @ 1029 NONAME
	_ZNK18QGraphicsVideoItem10metaObjectEv @ 1030 NONAME
	_ZNK18QGraphicsVideoItem10nativeSizeEv @ 1031 NONAME
	_ZNK18QGraphicsVideoItem11mediaObjectEv @ 1032 NONAME
	_ZNK18QGraphicsVideoItem12boundingRectEv @ 1033 NONAME
	_ZNK18QGraphicsVideoItem15aspectRatioModeEv @ 1034 NONAME
	_ZNK18QGraphicsVideoItem4sizeEv @ 1035 NONAME
	_ZNK18QGraphicsVideoItem6offsetEv @ 1036 NONAME
	_ZNK18QMediaTimeInterval10normalizedEv @ 1037 NONAME
	_ZNK18QMediaTimeInterval10translatedEx @ 1038 NONAME
	_ZNK18QMediaTimeInterval3endEv @ 1039 NONAME
	_ZNK18QMediaTimeInterval5startEv @ 1040 NONAME
	_ZNK18QMediaTimeInterval8containsEx @ 1041 NONAME
	_ZNK18QMediaTimeInterval8isNormalEv @ 1042 NONAME
	_ZNK18QMemoryVideoBuffer7mapModeEv @ 1043 NONAME
	_ZNK18QRadioTunerControl10metaObjectEv @ 1044 NONAME
	_ZNK19QAbstractAudioInput10metaObjectEv @ 1045 NONAME
	_ZNK19QAudioCaptureSource10metaObjectEv @ 1046 NONAME
	_ZNK19QAudioCaptureSource11audioInputsEv @ 1047 NONAME
	_ZNK19QAudioCaptureSource11isAvailableEv @ 1048 NONAME
	_ZNK19QAudioCaptureSource16activeAudioInputEv @ 1049 NONAME
	_ZNK19QAudioCaptureSource16audioDescriptionERK7QString @ 1050 NONAME
	_ZNK19QAudioCaptureSource17availabilityErrorEv @ 1051 NONAME
	_ZNK19QAudioCaptureSource17defaultAudioInputEv @ 1052 NONAME
	_ZNK19QMediaPlayerControl10metaObjectEv @ 1053 NONAME
	_ZNK19QVideoDeviceControl10metaObjectEv @ 1054 NONAME
	_ZNK19QVideoSurfaceFormat10frameWidthEv @ 1055 NONAME
	_ZNK19QVideoSurfaceFormat10handleTypeEv @ 1056 NONAME
	_ZNK19QVideoSurfaceFormat11frameHeightEv @ 1057 NONAME
	_ZNK19QVideoSurfaceFormat11pixelFormatEv @ 1058 NONAME
	_ZNK19QVideoSurfaceFormat13propertyNamesEv @ 1059 NONAME
	_ZNK19QVideoSurfaceFormat15yCbCrColorSpaceEv @ 1060 NONAME
	_ZNK19QVideoSurfaceFormat16pixelAspectRatioEv @ 1061 NONAME
	_ZNK19QVideoSurfaceFormat17scanLineDirectionEv @ 1062 NONAME
	_ZNK19QVideoSurfaceFormat7isValidEv @ 1063 NONAME
	_ZNK19QVideoSurfaceFormat8propertyEPKc @ 1064 NONAME
	_ZNK19QVideoSurfaceFormat8sizeHintEv @ 1065 NONAME
	_ZNK19QVideoSurfaceFormat8viewportEv @ 1066 NONAME
	_ZNK19QVideoSurfaceFormat9frameRateEv @ 1067 NONAME
	_ZNK19QVideoSurfaceFormat9frameSizeEv @ 1068 NONAME
	_ZNK19QVideoSurfaceFormateqERKS_ @ 1069 NONAME
	_ZNK19QVideoSurfaceFormatneERKS_ @ 1070 NONAME
	_ZNK19QVideoWidgetControl10metaObjectEv @ 1071 NONAME
	_ZNK19QVideoWindowControl10metaObjectEv @ 1072 NONAME
	_ZNK20QAbstractAudioOutput10metaObjectEv @ 1073 NONAME
	_ZNK20QAbstractVideoBuffer10handleTypeEv @ 1074 NONAME
	_ZNK20QAbstractVideoBuffer6handleEv @ 1075 NONAME
	_ZNK20QAudioEncoderControl10metaObjectEv @ 1076 NONAME
	_ZNK20QImageEncoderControl10metaObjectEv @ 1077 NONAME
	_ZNK20QMediaStreamsControl10metaObjectEv @ 1078 NONAME
	_ZNK20QVideoEncoderControl10metaObjectEv @ 1079 NONAME
	_ZNK21QAbstractVideoSurface10metaObjectEv @ 1080 NONAME
	_ZNK21QAbstractVideoSurface13nearestFormatERK19QVideoSurfaceFormat @ 1081 NONAME
	_ZNK21QAbstractVideoSurface13surfaceFormatEv @ 1082 NONAME
	_ZNK21QAbstractVideoSurface17isFormatSupportedERK19QVideoSurfaceFormat @ 1083 NONAME
	_ZNK21QAbstractVideoSurface5errorEv @ 1084 NONAME
	_ZNK21QAbstractVideoSurface8isActiveEv @ 1085 NONAME
	_ZNK21QAudioEncoderSettings10sampleRateEv @ 1086 NONAME
	_ZNK21QAudioEncoderSettings12channelCountEv @ 1087 NONAME
	_ZNK21QAudioEncoderSettings12encodingModeEv @ 1088 NONAME
	_ZNK21QAudioEncoderSettings5codecEv @ 1089 NONAME
	_ZNK21QAudioEncoderSettings6isNullEv @ 1090 NONAME
	_ZNK21QAudioEncoderSettings7bitRateEv @ 1091 NONAME
	_ZNK21QAudioEncoderSettings7qualityEv @ 1092 NONAME
	_ZNK21QAudioEncoderSettingseqERKS_ @ 1093 NONAME
	_ZNK21QAudioEncoderSettingsneERKS_ @ 1094 NONAME
	_ZNK21QImageEncoderSettings10resolutionEv @ 1095 NONAME
	_ZNK21QImageEncoderSettings5codecEv @ 1096 NONAME
	_ZNK21QImageEncoderSettings6isNullEv @ 1097 NONAME
	_ZNK21QImageEncoderSettings7qualityEv @ 1098 NONAME
	_ZNK21QImageEncoderSettingseqERKS_ @ 1099 NONAME
	_ZNK21QImageEncoderSettingsneERKS_ @ 1100 NONAME
	_ZNK21QMediaPlaylistControl10metaObjectEv @ 1101 NONAME
	_ZNK21QMediaRecorderControl10metaObjectEv @ 1102 NONAME
	_ZNK21QMediaServiceProvider10hasSupportERK10QByteArrayRK7QStringRK11QStringListi @ 1103 NONAME
	_ZNK21QMediaServiceProvider10metaObjectEv @ 1104 NONAME
	_ZNK21QMediaServiceProvider18supportedMimeTypesERK10QByteArrayi @ 1105 NONAME
	_ZNK21QMediaServiceProvider7devicesERK10QByteArray @ 1106 NONAME
	_ZNK21QVideoEncoderSettings10resolutionEv @ 1107 NONAME
	_ZNK21QVideoEncoderSettings12encodingModeEv @ 1108 NONAME
	_ZNK21QVideoEncoderSettings5codecEv @ 1109 NONAME
	_ZNK21QVideoEncoderSettings6isNullEv @ 1110 NONAME
	_ZNK21QVideoEncoderSettings7bitRateEv @ 1111 NONAME
	_ZNK21QVideoEncoderSettings7qualityEv @ 1112 NONAME
	_ZNK21QVideoEncoderSettings9frameRateEv @ 1113 NONAME
	_ZNK21QVideoEncoderSettingseqERKS_ @ 1114 NONAME
	_ZNK21QVideoEncoderSettingsneERKS_ @ 1115 NONAME
	_ZNK21QVideoRendererControl10metaObjectEv @ 1116 NONAME
	_ZNK22QAudioEndpointSelector10metaObjectEv @ 1117 NONAME
	_ZNK22QMediaContainerControl10metaObjectEv @ 1118 NONAME
	_ZNK22QMediaPlaylistIOPlugin10metaObjectEv @ 1119 NONAME
	_ZNK22QMediaPlaylistProvider10isReadOnlyEv @ 1120 NONAME
	_ZNK22QMediaPlaylistProvider10metaObjectEv @ 1121 NONAME
	_ZNK22QMetaDataReaderControl10metaObjectEv @ 1122 NONAME
	_ZNK22QMetaDataWriterControl10metaObjectEv @ 1123 NONAME
	_ZNK23QMediaPlaylistNavigator10metaObjectEv @ 1124 NONAME
	_ZNK23QMediaPlaylistNavigator11currentItemEv @ 1125 NONAME
	_ZNK23QMediaPlaylistNavigator12currentIndexEv @ 1126 NONAME
	_ZNK23QMediaPlaylistNavigator12playbackModeEv @ 1127 NONAME
	_ZNK23QMediaPlaylistNavigator12previousItemEi @ 1128 NONAME
	_ZNK23QMediaPlaylistNavigator13previousIndexEi @ 1129 NONAME
	_ZNK23QMediaPlaylistNavigator6itemAtEi @ 1130 NONAME
	_ZNK23QMediaPlaylistNavigator8nextItemEi @ 1131 NONAME
	_ZNK23QMediaPlaylistNavigator8playlistEv @ 1132 NONAME
	_ZNK23QMediaPlaylistNavigator9nextIndexEi @ 1133 NONAME
	_ZNK24QAbstractAudioDeviceInfo10metaObjectEv @ 1134 NONAME
	_ZNK25QMediaServiceProviderHint4typeEv @ 1135 NONAME
	_ZNK25QMediaServiceProviderHint6codecsEv @ 1136 NONAME
	_ZNK25QMediaServiceProviderHint6deviceEv @ 1137 NONAME
	_ZNK25QMediaServiceProviderHint6isNullEv @ 1138 NONAME
	_ZNK25QMediaServiceProviderHint8featuresEv @ 1139 NONAME
	_ZNK25QMediaServiceProviderHint8mimeTypeEv @ 1140 NONAME
	_ZNK25QMediaServiceProviderHinteqERKS_ @ 1141 NONAME
	_ZNK25QMediaServiceProviderHintneERKS_ @ 1142 NONAME
	_ZNK27QLocalMediaPlaylistProvider10isReadOnlyEv @ 1143 NONAME
	_ZNK27QLocalMediaPlaylistProvider10mediaCountEv @ 1144 NONAME
	_ZNK27QLocalMediaPlaylistProvider10metaObjectEv @ 1145 NONAME
	_ZNK27QLocalMediaPlaylistProvider5mediaEi @ 1146 NONAME
	_ZNK27QMediaPlaylistSourceControl10metaObjectEv @ 1147 NONAME
	_ZNK27QMediaServiceProviderPlugin10metaObjectEv @ 1148 NONAME
	_ZTI11QAudioInput @ 1149 NONAME
	_ZTI11QRadioTuner @ 1150 NONAME
	_ZTI12QAudioOutput @ 1151 NONAME
	_ZTI12QMediaObject @ 1152 NONAME
	_ZTI12QMediaPlayer @ 1153 NONAME
	_ZTI12QSoundEffect @ 1154 NONAME
	_ZTI12QVideoWidget @ 1155 NONAME
	_ZTI13QMediaControl @ 1156 NONAME
	_ZTI13QMediaService @ 1157 NONAME
	_ZTI14QMediaPlaylist @ 1158 NONAME
	_ZTI14QMediaRecorder @ 1159 NONAME
	_ZTI17QImageVideoBuffer @ 1160 NONAME
	_ZTI17QMediaImageViewer @ 1161 NONAME
	_ZTI18QAudioSystemPlugin @ 1162 NONAME
	_ZTI18QGraphicsVideoItem @ 1163 NONAME
	_ZTI18QMemoryVideoBuffer @ 1164 NONAME
	_ZTI18QRadioTunerControl @ 1165 NONAME
	_ZTI19QAbstractAudioInput @ 1166 NONAME
	_ZTI19QAudioCaptureSource @ 1167 NONAME
	_ZTI19QMediaPlayerControl @ 1168 NONAME
	_ZTI19QVideoDeviceControl @ 1169 NONAME
	_ZTI19QVideoWidgetControl @ 1170 NONAME
	_ZTI19QVideoWindowControl @ 1171 NONAME
	_ZTI20QAbstractAudioOutput @ 1172 NONAME
	_ZTI20QAbstractVideoBuffer @ 1173 NONAME
	_ZTI20QAudioEncoderControl @ 1174 NONAME
	_ZTI20QImageEncoderControl @ 1175 NONAME
	_ZTI20QMediaPlaylistReader @ 1176 NONAME
	_ZTI20QMediaPlaylistWriter @ 1177 NONAME
	_ZTI20QMediaStreamsControl @ 1178 NONAME
	_ZTI20QVideoEncoderControl @ 1179 NONAME
	_ZTI21QAbstractVideoSurface @ 1180 NONAME
	_ZTI21QMediaPlaylistControl @ 1181 NONAME
	_ZTI21QMediaRecorderControl @ 1182 NONAME
	_ZTI21QMediaServiceProvider @ 1183 NONAME
	_ZTI21QVideoRendererControl @ 1184 NONAME
	_ZTI22QAudioEndpointSelector @ 1185 NONAME
	_ZTI22QMediaContainerControl @ 1186 NONAME
	_ZTI22QMediaPlaylistIOPlugin @ 1187 NONAME
	_ZTI22QMediaPlaylistProvider @ 1188 NONAME
	_ZTI22QMetaDataReaderControl @ 1189 NONAME
	_ZTI22QMetaDataWriterControl @ 1190 NONAME
	_ZTI23QMediaBindableInterface @ 1191 NONAME
	_ZTI23QMediaPlaylistNavigator @ 1192 NONAME
	_ZTI24QAbstractAudioDeviceInfo @ 1193 NONAME
	_ZTI25QMediaPlaylistIOInterface @ 1194 NONAME
	_ZTI27QLocalMediaPlaylistProvider @ 1195 NONAME
	_ZTI27QMediaPlaylistSourceControl @ 1196 NONAME
	_ZTI27QMediaServiceProviderPlugin @ 1197 NONAME
	_ZTI28QAudioSystemFactoryInterface @ 1198 NONAME
	_ZTI37QMediaServiceProviderFactoryInterface @ 1199 NONAME
	_ZTV11QAudioInput @ 1200 NONAME
	_ZTV11QRadioTuner @ 1201 NONAME
	_ZTV12QAudioOutput @ 1202 NONAME
	_ZTV12QMediaObject @ 1203 NONAME
	_ZTV12QMediaPlayer @ 1204 NONAME
	_ZTV12QSoundEffect @ 1205 NONAME
	_ZTV12QVideoWidget @ 1206 NONAME
	_ZTV13QMediaControl @ 1207 NONAME
	_ZTV13QMediaService @ 1208 NONAME
	_ZTV14QMediaPlaylist @ 1209 NONAME
	_ZTV14QMediaRecorder @ 1210 NONAME
	_ZTV17QImageVideoBuffer @ 1211 NONAME
	_ZTV17QMediaImageViewer @ 1212 NONAME
	_ZTV18QAudioSystemPlugin @ 1213 NONAME
	_ZTV18QGraphicsVideoItem @ 1214 NONAME
	_ZTV18QMemoryVideoBuffer @ 1215 NONAME
	_ZTV18QRadioTunerControl @ 1216 NONAME
	_ZTV19QAbstractAudioInput @ 1217 NONAME
	_ZTV19QAudioCaptureSource @ 1218 NONAME
	_ZTV19QMediaPlayerControl @ 1219 NONAME
	_ZTV19QVideoDeviceControl @ 1220 NONAME
	_ZTV19QVideoWidgetControl @ 1221 NONAME
	_ZTV19QVideoWindowControl @ 1222 NONAME
	_ZTV20QAbstractAudioOutput @ 1223 NONAME
	_ZTV20QAbstractVideoBuffer @ 1224 NONAME
	_ZTV20QAudioEncoderControl @ 1225 NONAME
	_ZTV20QImageEncoderControl @ 1226 NONAME
	_ZTV20QMediaPlaylistReader @ 1227 NONAME
	_ZTV20QMediaPlaylistWriter @ 1228 NONAME
	_ZTV20QMediaStreamsControl @ 1229 NONAME
	_ZTV20QVideoEncoderControl @ 1230 NONAME
	_ZTV21QAbstractVideoSurface @ 1231 NONAME
	_ZTV21QMediaPlaylistControl @ 1232 NONAME
	_ZTV21QMediaRecorderControl @ 1233 NONAME
	_ZTV21QMediaServiceProvider @ 1234 NONAME
	_ZTV21QVideoRendererControl @ 1235 NONAME
	_ZTV22QAudioEndpointSelector @ 1236 NONAME
	_ZTV22QMediaContainerControl @ 1237 NONAME
	_ZTV22QMediaPlaylistIOPlugin @ 1238 NONAME
	_ZTV22QMediaPlaylistProvider @ 1239 NONAME
	_ZTV22QMetaDataReaderControl @ 1240 NONAME
	_ZTV22QMetaDataWriterControl @ 1241 NONAME
	_ZTV23QMediaBindableInterface @ 1242 NONAME
	_ZTV23QMediaPlaylistNavigator @ 1243 NONAME
	_ZTV24QAbstractAudioDeviceInfo @ 1244 NONAME
	_ZTV27QLocalMediaPlaylistProvider @ 1245 NONAME
	_ZTV27QMediaPlaylistSourceControl @ 1246 NONAME
	_ZTV27QMediaServiceProviderPlugin @ 1247 NONAME
	_ZThn16_N18QGraphicsVideoItem14setMediaObjectEP12QMediaObject @ 1248 NONAME
	_ZThn16_N18QGraphicsVideoItemD0Ev @ 1249 NONAME
	_ZThn16_N18QGraphicsVideoItemD1Ev @ 1250 NONAME
	_ZThn16_NK18QGraphicsVideoItem11mediaObjectEv @ 1251 NONAME
	_ZThn20_N12QVideoWidget14setMediaObjectEP12QMediaObject @ 1252 NONAME
	_ZThn20_N12QVideoWidgetD0Ev @ 1253 NONAME
	_ZThn20_N12QVideoWidgetD1Ev @ 1254 NONAME
	_ZThn20_NK12QVideoWidget11mediaObjectEv @ 1255 NONAME
	_ZThn8_N12QVideoWidgetD0Ev @ 1256 NONAME
	_ZThn8_N12QVideoWidgetD1Ev @ 1257 NONAME
	_ZThn8_N14QMediaPlaylist14setMediaObjectEP12QMediaObject @ 1258 NONAME
	_ZThn8_N14QMediaPlaylistD0Ev @ 1259 NONAME
	_ZThn8_N14QMediaPlaylistD1Ev @ 1260 NONAME
	_ZThn8_N14QMediaRecorder14setMediaObjectEP12QMediaObject @ 1261 NONAME
	_ZThn8_N14QMediaRecorderD0Ev @ 1262 NONAME
	_ZThn8_N14QMediaRecorderD1Ev @ 1263 NONAME
	_ZThn8_N18QAudioSystemPluginD0Ev @ 1264 NONAME
	_ZThn8_N18QAudioSystemPluginD1Ev @ 1265 NONAME
	_ZThn8_N18QGraphicsVideoItem10itemChangeEN13QGraphicsItem18GraphicsItemChangeERK8QVariant @ 1266 NONAME
	_ZThn8_N18QGraphicsVideoItem5paintEP8QPainterPK24QStyleOptionGraphicsItemP7QWidget @ 1267 NONAME
	_ZThn8_N18QGraphicsVideoItemD0Ev @ 1268 NONAME
	_ZThn8_N18QGraphicsVideoItemD1Ev @ 1269 NONAME
	_ZThn8_N22QMediaPlaylistIOPluginD0Ev @ 1270 NONAME
	_ZThn8_N22QMediaPlaylistIOPluginD1Ev @ 1271 NONAME
	_ZThn8_NK14QMediaPlaylist11mediaObjectEv @ 1272 NONAME
	_ZThn8_NK14QMediaRecorder11mediaObjectEv @ 1273 NONAME
	_ZThn8_NK18QGraphicsVideoItem12boundingRectEv @ 1274 NONAME
	_ZeqRK15QMediaTimeRangeS1_ @ 1275 NONAME
	_ZeqRK18QMediaTimeIntervalS1_ @ 1276 NONAME
	_Zls6QDebugRK19QVideoSurfaceFormat @ 1277 NONAME
	_ZmiRK15QMediaTimeRangeS1_ @ 1278 NONAME
	_ZneRK15QMediaTimeRangeS1_ @ 1279 NONAME
	_ZneRK18QMediaTimeIntervalS1_ @ 1280 NONAME
	_ZplRK15QMediaTimeRangeS1_ @ 1281 NONAME
	_ZN12QCameraFocus11qt_metacallEN11QMetaObject4CallEiPPv @ 1282 NONAME
	_ZN12QCameraFocus11qt_metacastEPKc @ 1283 NONAME
	_ZN12QCameraFocus12setFocusModeENS_9FocusModeE @ 1284 NONAME
	_ZN12QCameraFocus16staticMetaObjectE @ 1285 NONAME DATA 16
	_ZN12QCameraFocus17focusZonesChangedEv @ 1286 NONAME
	_ZN12QCameraFocus17setFocusPointModeENS_14FocusPointModeE @ 1287 NONAME
	_ZN12QCameraFocus18digitalZoomChangedEf @ 1288 NONAME
	_ZN12QCameraFocus18opticalZoomChangedEf @ 1289 NONAME
	_ZN12QCameraFocus19getStaticMetaObjectEv @ 1290 NONAME
	_ZN12QCameraFocus19setCustomFocusPointERK7QPointF @ 1291 NONAME
	_ZN12QCameraFocus6zoomToEff @ 1292 NONAME
	_ZN12QCameraFocusC1EP7QCamera @ 1293 NONAME
	_ZN12QCameraFocusC2EP7QCamera @ 1294 NONAME
	_ZN12QCameraFocusD0Ev @ 1295 NONAME
	_ZN12QCameraFocusD1Ev @ 1296 NONAME
	_ZN12QCameraFocusD2Ev @ 1297 NONAME
	_ZN12QVideoWidgetC1ER19QVideoWidgetPrivateP7QWidget @ 1298 NONAME
	_ZN12QVideoWidgetC2ER19QVideoWidgetPrivateP7QWidget @ 1299 NONAME
	_ZN14QCameraControl11qt_metacallEN11QMetaObject4CallEiPPv @ 1300 NONAME
	_ZN14QCameraControl11qt_metacastEPKc @ 1301 NONAME
	_ZN14QCameraControl12stateChangedEN7QCamera5StateE @ 1302 NONAME
	_ZN14QCameraControl16staticMetaObjectE @ 1303 NONAME DATA 16
	_ZN14QCameraControl18captureModeChangedEN7QCamera11CaptureModeE @ 1304 NONAME
	_ZN14QCameraControl19getStaticMetaObjectEv @ 1305 NONAME
	_ZN14QCameraControl5errorEiRK7QString @ 1306 NONAME
	_ZN14QCameraControlC2EP7QObject @ 1307 NONAME
	_ZN14QCameraControlD0Ev @ 1308 NONAME
	_ZN14QCameraControlD1Ev @ 1309 NONAME
	_ZN14QCameraControlD2Ev @ 1310 NONAME
	_ZN15QCameraExposure10flashReadyEb @ 1311 NONAME
	_ZN15QCameraExposure11qt_metacallEN11QMetaObject4CallEiPPv @ 1312 NONAME
	_ZN15QCameraExposure11qt_metacastEPKc @ 1313 NONAME
	_ZN15QCameraExposure12setFlashModeE6QFlagsINS_9FlashModeEE @ 1314 NONAME
	_ZN15QCameraExposure15apertureChangedEf @ 1315 NONAME
	_ZN15QCameraExposure15setAutoApertureEv @ 1316 NONAME
	_ZN15QCameraExposure15setExposureModeENS_12ExposureModeE @ 1317 NONAME
	_ZN15QCameraExposure15setMeteringModeENS_12MeteringModeE @ 1318 NONAME
	_ZN15QCameraExposure16staticMetaObjectE @ 1319 NONAME DATA 16
	_ZN15QCameraExposure17setManualApertureEf @ 1320 NONAME
	_ZN15QCameraExposure19getStaticMetaObjectEv @ 1321 NONAME
	_ZN15QCameraExposure19setAutoShutterSpeedEv @ 1322 NONAME
	_ZN15QCameraExposure19shutterSpeedChangedEf @ 1323 NONAME
	_ZN15QCameraExposure20apertureRangeChangedEv @ 1324 NONAME
	_ZN15QCameraExposure21isoSensitivityChangedEi @ 1325 NONAME
	_ZN15QCameraExposure21setAutoIsoSensitivityEv @ 1326 NONAME
	_ZN15QCameraExposure21setManualShutterSpeedEf @ 1327 NONAME
	_ZN15QCameraExposure23setExposureCompensationEf @ 1328 NONAME
	_ZN15QCameraExposure23setManualIsoSensitivityEi @ 1329 NONAME
	_ZN15QCameraExposure24shutterSpeedRangeChangedEv @ 1330 NONAME
	_ZN15QCameraExposureC1EP7QCamera @ 1331 NONAME
	_ZN15QCameraExposureC2EP7QCamera @ 1332 NONAME
	_ZN15QCameraExposureD0Ev @ 1333 NONAME
	_ZN15QCameraExposureD1Ev @ 1334 NONAME
	_ZN15QCameraExposureD2Ev @ 1335 NONAME
	_ZN16QCameraFocusZone9setStatusENS_15FocusZoneStatusE @ 1336 NONAME
	_ZN16QCameraFocusZoneC1ERK6QRectFNS_15FocusZoneStatusE @ 1337 NONAME
	_ZN16QCameraFocusZoneC1ERKS_ @ 1338 NONAME
	_ZN16QCameraFocusZoneC1Ev @ 1339 NONAME
	_ZN16QCameraFocusZoneC2ERK6QRectFNS_15FocusZoneStatusE @ 1340 NONAME
	_ZN16QCameraFocusZoneC2ERKS_ @ 1341 NONAME
	_ZN16QCameraFocusZoneC2Ev @ 1342 NONAME
	_ZN16QCameraFocusZoneD1Ev @ 1343 NONAME
	_ZN16QCameraFocusZoneD2Ev @ 1344 NONAME
	_ZN16QCameraFocusZoneaSERKS_ @ 1345 NONAME
	_ZN17QCameraViewfinder11qt_metacallEN11QMetaObject4CallEiPPv @ 1346 NONAME
	_ZN17QCameraViewfinder11qt_metacastEPKc @ 1347 NONAME
	_ZN17QCameraViewfinder14setMediaObjectEP12QMediaObject @ 1348 NONAME
	_ZN17QCameraViewfinder16staticMetaObjectE @ 1349 NONAME DATA 16
	_ZN17QCameraViewfinder19getStaticMetaObjectEv @ 1350 NONAME
	_ZN17QCameraViewfinderC1EP7QWidget @ 1351 NONAME
	_ZN17QCameraViewfinderC2EP7QWidget @ 1352 NONAME
	_ZN17QCameraViewfinderD0Ev @ 1353 NONAME
	_ZN17QCameraViewfinderD1Ev @ 1354 NONAME
	_ZN17QCameraViewfinderD2Ev @ 1355 NONAME
	_ZN19QCameraFocusControl11qt_metacallEN11QMetaObject4CallEiPPv @ 1356 NONAME
	_ZN19QCameraFocusControl11qt_metacastEPKc @ 1357 NONAME
	_ZN19QCameraFocusControl16staticMetaObjectE @ 1358 NONAME DATA 16
	_ZN19QCameraFocusControl17focusZonesChangedEv @ 1359 NONAME
	_ZN19QCameraFocusControl18digitalZoomChangedEf @ 1360 NONAME
	_ZN19QCameraFocusControl18opticalZoomChangedEf @ 1361 NONAME
	_ZN19QCameraFocusControl19getStaticMetaObjectEv @ 1362 NONAME
	_ZN19QCameraFocusControlC2EP7QObject @ 1363 NONAME
	_ZN19QCameraFocusControlD0Ev @ 1364 NONAME
	_ZN19QCameraFocusControlD1Ev @ 1365 NONAME
	_ZN19QCameraFocusControlD2Ev @ 1366 NONAME
	_ZN19QCameraImageCapture10imageSavedEiRK7QString @ 1367 NONAME
	_ZN19QCameraImageCapture11qt_metacallEN11QMetaObject4CallEiPPv @ 1368 NONAME
	_ZN19QCameraImageCapture11qt_metacastEPKc @ 1369 NONAME
	_ZN19QCameraImageCapture12imageExposedEi @ 1370 NONAME
	_ZN19QCameraImageCapture13cancelCaptureEv @ 1371 NONAME
	_ZN19QCameraImageCapture13imageCapturedEiRK6QImage @ 1372 NONAME
	_ZN19QCameraImageCapture14setMediaObjectEP12QMediaObject @ 1373 NONAME
	_ZN19QCameraImageCapture16staticMetaObjectE @ 1374 NONAME DATA 16
	_ZN19QCameraImageCapture19getStaticMetaObjectEv @ 1375 NONAME
	_ZN19QCameraImageCapture19setEncodingSettingsERK21QImageEncoderSettings @ 1376 NONAME
	_ZN19QCameraImageCapture22readyForCaptureChangedEb @ 1377 NONAME
	_ZN19QCameraImageCapture5errorEiNS_5ErrorERK7QString @ 1378 NONAME
	_ZN19QCameraImageCapture7captureERK7QString @ 1379 NONAME
	_ZN19QCameraImageCaptureC1EP12QMediaObjectP7QObject @ 1380 NONAME
	_ZN19QCameraImageCaptureC2EP12QMediaObjectP7QObject @ 1381 NONAME
	_ZN19QCameraImageCaptureD0Ev @ 1382 NONAME
	_ZN19QCameraImageCaptureD1Ev @ 1383 NONAME
	_ZN19QCameraImageCaptureD2Ev @ 1384 NONAME
	_ZN19QCameraLocksControl11qt_metacallEN11QMetaObject4CallEiPPv @ 1385 NONAME
	_ZN19QCameraLocksControl11qt_metacastEPKc @ 1386 NONAME
	_ZN19QCameraLocksControl16staticMetaObjectE @ 1387 NONAME DATA 16
	_ZN19QCameraLocksControl17lockStatusChangedEN7QCamera8LockTypeENS0_10LockStatusENS0_16LockChangeReasonE @ 1388 NONAME
	_ZN19QCameraLocksControl19getStaticMetaObjectEv @ 1389 NONAME
	_ZN19QCameraLocksControlC2EP7QObject @ 1390 NONAME
	_ZN19QCameraLocksControlD0Ev @ 1391 NONAME
	_ZN19QCameraLocksControlD1Ev @ 1392 NONAME
	_ZN19QCameraLocksControlD2Ev @ 1393 NONAME
	_ZN22QCameraExposureControl10flashReadyEb @ 1394 NONAME
	_ZN22QCameraExposureControl11qt_metacallEN11QMetaObject4CallEiPPv @ 1395 NONAME
	_ZN22QCameraExposureControl11qt_metacastEPKc @ 1396 NONAME
	_ZN22QCameraExposureControl16staticMetaObjectE @ 1397 NONAME DATA 16
	_ZN22QCameraExposureControl19getStaticMetaObjectEv @ 1398 NONAME
	_ZN22QCameraExposureControl24exposureParameterChangedEi @ 1399 NONAME
	_ZN22QCameraExposureControl29exposureParameterRangeChangedEi @ 1400 NONAME
	_ZN22QCameraExposureControlC2EP7QObject @ 1401 NONAME
	_ZN22QCameraExposureControlD0Ev @ 1402 NONAME
	_ZN22QCameraExposureControlD1Ev @ 1403 NONAME
	_ZN22QCameraExposureControlD2Ev @ 1404 NONAME
	_ZN22QCameraImageProcessing11qt_metacallEN11QMetaObject4CallEiPPv @ 1405 NONAME
	_ZN22QCameraImageProcessing11qt_metacastEPKc @ 1406 NONAME
	_ZN22QCameraImageProcessing11setContrastEi @ 1407 NONAME
	_ZN22QCameraImageProcessing13setSaturationEi @ 1408 NONAME
	_ZN22QCameraImageProcessing16staticMetaObjectE @ 1409 NONAME DATA 16
	_ZN22QCameraImageProcessing17setDenoisingLevelEi @ 1410 NONAME
	_ZN22QCameraImageProcessing18setSharpeningLevelEi @ 1411 NONAME
	_ZN22QCameraImageProcessing19getStaticMetaObjectEv @ 1412 NONAME
	_ZN22QCameraImageProcessing19setWhiteBalanceModeENS_16WhiteBalanceModeE @ 1413 NONAME
	_ZN22QCameraImageProcessing21setManualWhiteBalanceEi @ 1414 NONAME
	_ZN22QCameraImageProcessingC1EP7QCamera @ 1415 NONAME
	_ZN22QCameraImageProcessingC2EP7QCamera @ 1416 NONAME
	_ZN22QCameraImageProcessingD0Ev @ 1417 NONAME
	_ZN22QCameraImageProcessingD1Ev @ 1418 NONAME
	_ZN22QCameraImageProcessingD2Ev @ 1419 NONAME
	_ZN26QCameraImageCaptureControl10imageSavedEiRK7QString @ 1420 NONAME
	_ZN26QCameraImageCaptureControl11qt_metacallEN11QMetaObject4CallEiPPv @ 1421 NONAME
	_ZN26QCameraImageCaptureControl11qt_metacastEPKc @ 1422 NONAME
	_ZN26QCameraImageCaptureControl12imageExposedEi @ 1423 NONAME
	_ZN26QCameraImageCaptureControl13imageCapturedEiRK6QImage @ 1424 NONAME
	_ZN26QCameraImageCaptureControl16staticMetaObjectE @ 1425 NONAME DATA 16
	_ZN26QCameraImageCaptureControl19getStaticMetaObjectEv @ 1426 NONAME
	_ZN26QCameraImageCaptureControl22readyForCaptureChangedEb @ 1427 NONAME
	_ZN26QCameraImageCaptureControl5errorEiiRK7QString @ 1428 NONAME
	_ZN26QCameraImageCaptureControlC2EP7QObject @ 1429 NONAME
	_ZN26QCameraImageCaptureControlD0Ev @ 1430 NONAME
	_ZN26QCameraImageCaptureControlD1Ev @ 1431 NONAME
	_ZN26QCameraImageCaptureControlD2Ev @ 1432 NONAME
	_ZN29QCameraImageProcessingControl11qt_metacallEN11QMetaObject4CallEiPPv @ 1433 NONAME
	_ZN29QCameraImageProcessingControl11qt_metacastEPKc @ 1434 NONAME
	_ZN29QCameraImageProcessingControl16staticMetaObjectE @ 1435 NONAME DATA 16
	_ZN29QCameraImageProcessingControl19getStaticMetaObjectEv @ 1436 NONAME
	_ZN29QCameraImageProcessingControlC2EP7QObject @ 1437 NONAME
	_ZN29QCameraImageProcessingControlD0Ev @ 1438 NONAME
	_ZN29QCameraImageProcessingControlD1Ev @ 1439 NONAME
	_ZN29QCameraImageProcessingControlD2Ev @ 1440 NONAME
	_ZN7QCamera10lockFailedEv @ 1441 NONAME
	_ZN7QCamera11qt_metacallEN11QMetaObject4CallEiPPv @ 1442 NONAME
	_ZN7QCamera11qt_metacastEPKc @ 1443 NONAME
	_ZN7QCamera12stateChangedENS_5StateE @ 1444 NONAME
	_ZN7QCamera13searchAndLockE6QFlagsINS_8LockTypeEE @ 1445 NONAME
	_ZN7QCamera13searchAndLockEv @ 1446 NONAME
	_ZN7QCamera13setViewfinderEP12QVideoWidget @ 1447 NONAME
	_ZN7QCamera13setViewfinderEP18QGraphicsVideoItem @ 1448 NONAME
	_ZN7QCamera14setCaptureModeENS_11CaptureModeE @ 1449 NONAME
	_ZN7QCamera16availableDevicesEv @ 1450 NONAME
	_ZN7QCamera16staticMetaObjectE @ 1451 NONAME DATA 16
	_ZN7QCamera17deviceDescriptionERK10QByteArray @ 1452 NONAME
	_ZN7QCamera17lockStatusChangedENS_10LockStatusENS_16LockChangeReasonE @ 1453 NONAME
	_ZN7QCamera17lockStatusChangedENS_8LockTypeENS_10LockStatusENS_16LockChangeReasonE @ 1454 NONAME
	_ZN7QCamera18captureModeChangedENS_11CaptureModeE @ 1455 NONAME
	_ZN7QCamera19getStaticMetaObjectEv @ 1456 NONAME
	_ZN7QCamera4stopEv @ 1457 NONAME
	_ZN7QCamera5errorENS_5ErrorE @ 1458 NONAME
	_ZN7QCamera5startEv @ 1459 NONAME
	_ZN7QCamera6lockedEv @ 1460 NONAME
	_ZN7QCamera6unlockE6QFlagsINS_8LockTypeEE @ 1461 NONAME
	_ZN7QCamera6unlockEv @ 1462 NONAME
	_ZN7QCameraC1EP7QObjectP21QMediaServiceProvider @ 1463 NONAME
	_ZN7QCameraC1ERK10QByteArrayP7QObject @ 1464 NONAME
	_ZN7QCameraC2EP7QObjectP21QMediaServiceProvider @ 1465 NONAME
	_ZN7QCameraC2ERK10QByteArrayP7QObject @ 1466 NONAME
	_ZN7QCameraD0Ev @ 1467 NONAME
	_ZN7QCameraD1Ev @ 1468 NONAME
	_ZN7QCameraD2Ev @ 1469 NONAME
	_ZNK12QCameraFocus10focusZonesEv @ 1470 NONAME
	_ZNK12QCameraFocus10metaObjectEv @ 1471 NONAME
	_ZNK12QCameraFocus11digitalZoomEv @ 1472 NONAME
	_ZNK12QCameraFocus11isAvailableEv @ 1473 NONAME
	_ZNK12QCameraFocus11opticalZoomEv @ 1474 NONAME
	_ZNK12QCameraFocus14focusPointModeEv @ 1475 NONAME
	_ZNK12QCameraFocus16customFocusPointEv @ 1476 NONAME
	_ZNK12QCameraFocus18maximumDigitalZoomEv @ 1477 NONAME
	_ZNK12QCameraFocus18maximumOpticalZoomEv @ 1478 NONAME
	_ZNK12QCameraFocus20isFocusModeSupportedENS_9FocusModeE @ 1479 NONAME
	_ZNK12QCameraFocus25isFocusPointModeSupportedENS_14FocusPointModeE @ 1480 NONAME
	_ZNK12QCameraFocus9focusModeEv @ 1481 NONAME
	_ZNK14QCameraControl10metaObjectEv @ 1482 NONAME
	_ZNK15QCameraExposure10metaObjectEv @ 1483 NONAME
	_ZNK15QCameraExposure11isAvailableEv @ 1484 NONAME
	_ZNK15QCameraExposure12exposureModeEv @ 1485 NONAME
	_ZNK15QCameraExposure12isFlashReadyEv @ 1486 NONAME
	_ZNK15QCameraExposure12meteringModeEv @ 1487 NONAME
	_ZNK15QCameraExposure12shutterSpeedEv @ 1488 NONAME
	_ZNK15QCameraExposure14isoSensitivityEv @ 1489 NONAME
	_ZNK15QCameraExposure18supportedAperturesEPb @ 1490 NONAME
	_ZNK15QCameraExposure20exposureCompensationEv @ 1491 NONAME
	_ZNK15QCameraExposure20isFlashModeSupportedE6QFlagsINS_9FlashModeEE @ 1492 NONAME
	_ZNK15QCameraExposure22supportedShutterSpeedsEPb @ 1493 NONAME
	_ZNK15QCameraExposure23isExposureModeSupportedENS_12ExposureModeE @ 1494 NONAME
	_ZNK15QCameraExposure23isMeteringModeSupportedENS_12MeteringModeE @ 1495 NONAME
	_ZNK15QCameraExposure25supportedIsoSensitivitiesEPb @ 1496 NONAME
	_ZNK15QCameraExposure8apertureEv @ 1497 NONAME
	_ZNK15QCameraExposure9flashModeEv @ 1498 NONAME
	_ZNK16QCameraFocusZone4areaEv @ 1499 NONAME
	_ZNK16QCameraFocusZone6statusEv @ 1500 NONAME
	_ZNK16QCameraFocusZone7isValidEv @ 1501 NONAME
	_ZNK16QCameraFocusZoneeqERKS_ @ 1502 NONAME
	_ZNK16QCameraFocusZoneneERKS_ @ 1503 NONAME
	_ZNK17QCameraViewfinder10metaObjectEv @ 1504 NONAME
	_ZNK17QCameraViewfinder11mediaObjectEv @ 1505 NONAME
	_ZNK17QMediaImageViewer8playlistEv @ 1506 NONAME
	_ZNK19QCameraFocusControl10metaObjectEv @ 1507 NONAME
	_ZNK19QCameraImageCapture10metaObjectEv @ 1508 NONAME
	_ZNK19QCameraImageCapture11errorStringEv @ 1509 NONAME
	_ZNK19QCameraImageCapture11isAvailableEv @ 1510 NONAME
	_ZNK19QCameraImageCapture11mediaObjectEv @ 1511 NONAME
	_ZNK19QCameraImageCapture16encodingSettingsEv @ 1512 NONAME
	_ZNK19QCameraImageCapture17availabilityErrorEv @ 1513 NONAME
	_ZNK19QCameraImageCapture17isReadyForCaptureEv @ 1514 NONAME
	_ZNK19QCameraImageCapture20supportedImageCodecsEv @ 1515 NONAME
	_ZNK19QCameraImageCapture20supportedResolutionsERK21QImageEncoderSettingsPb @ 1516 NONAME
	_ZNK19QCameraImageCapture21imageCodecDescriptionERK7QString @ 1517 NONAME
	_ZNK19QCameraImageCapture5errorEv @ 1518 NONAME
	_ZNK19QCameraLocksControl10metaObjectEv @ 1519 NONAME
	_ZNK22QCameraExposureControl10metaObjectEv @ 1520 NONAME
	_ZNK22QCameraImageProcessing10metaObjectEv @ 1521 NONAME
	_ZNK22QCameraImageProcessing10saturationEv @ 1522 NONAME
	_ZNK22QCameraImageProcessing11isAvailableEv @ 1523 NONAME
	_ZNK22QCameraImageProcessing14denoisingLevelEv @ 1524 NONAME
	_ZNK22QCameraImageProcessing15sharpeningLevelEv @ 1525 NONAME
	_ZNK22QCameraImageProcessing16whiteBalanceModeEv @ 1526 NONAME
	_ZNK22QCameraImageProcessing18manualWhiteBalanceEv @ 1527 NONAME
	_ZNK22QCameraImageProcessing20isDenoisingSupportedEv @ 1528 NONAME
	_ZNK22QCameraImageProcessing21isSharpeningSupportedEv @ 1529 NONAME
	_ZNK22QCameraImageProcessing27isWhiteBalanceModeSupportedENS_16WhiteBalanceModeE @ 1530 NONAME
	_ZNK22QCameraImageProcessing8contrastEv @ 1531 NONAME
	_ZNK26QCameraImageCaptureControl10metaObjectEv @ 1532 NONAME
	_ZNK29QCameraImageProcessingControl10metaObjectEv @ 1533 NONAME
	_ZNK7QCamera10lockStatusENS_8LockTypeE @ 1534 NONAME
	_ZNK7QCamera10lockStatusEv @ 1535 NONAME
	_ZNK7QCamera10metaObjectEv @ 1536 NONAME
	_ZNK7QCamera11captureModeEv @ 1537 NONAME
	_ZNK7QCamera11errorStringEv @ 1538 NONAME
	_ZNK7QCamera11isAvailableEv @ 1539 NONAME
	_ZNK7QCamera14requestedLocksEv @ 1540 NONAME
	_ZNK7QCamera14supportedLocksEv @ 1541 NONAME
	_ZNK7QCamera15imageProcessingEv @ 1542 NONAME
	_ZNK7QCamera17availabilityErrorEv @ 1543 NONAME
	_ZNK7QCamera22isCaptureModeSupportedENS_11CaptureModeE @ 1544 NONAME
	_ZNK7QCamera5errorEv @ 1545 NONAME
	_ZNK7QCamera5focusEv @ 1546 NONAME
	_ZNK7QCamera5stateEv @ 1547 NONAME
	_ZNK7QCamera8exposureEv @ 1548 NONAME
	_ZTI12QCameraFocus @ 1549 NONAME
	_ZTI14QCameraControl @ 1550 NONAME
	_ZTI15QCameraExposure @ 1551 NONAME
	_ZTI17QCameraViewfinder @ 1552 NONAME
	_ZTI19QCameraFocusControl @ 1553 NONAME
	_ZTI19QCameraImageCapture @ 1554 NONAME
	_ZTI19QCameraLocksControl @ 1555 NONAME
	_ZTI22QCameraExposureControl @ 1556 NONAME
	_ZTI22QCameraImageProcessing @ 1557 NONAME
	_ZTI26QCameraImageCaptureControl @ 1558 NONAME
	_ZTI29QCameraImageProcessingControl @ 1559 NONAME
	_ZTI7QCamera @ 1560 NONAME
	_ZTV12QCameraFocus @ 1561 NONAME
	_ZTV14QCameraControl @ 1562 NONAME
	_ZTV15QCameraExposure @ 1563 NONAME
	_ZTV17QCameraViewfinder @ 1564 NONAME
	_ZTV19QCameraFocusControl @ 1565 NONAME
	_ZTV19QCameraImageCapture @ 1566 NONAME
	_ZTV19QCameraLocksControl @ 1567 NONAME
	_ZTV22QCameraExposureControl @ 1568 NONAME
	_ZTV22QCameraImageProcessing @ 1569 NONAME
	_ZTV26QCameraImageCaptureControl @ 1570 NONAME
	_ZTV29QCameraImageProcessingControl @ 1571 NONAME
	_ZTV7QCamera @ 1572 NONAME
	_ZThn20_N17QCameraViewfinder14setMediaObjectEP12QMediaObject @ 1573 NONAME
	_ZThn20_N17QCameraViewfinderD0Ev @ 1574 NONAME
	_ZThn20_N17QCameraViewfinderD1Ev @ 1575 NONAME
	_ZThn20_NK17QCameraViewfinder11mediaObjectEv @ 1576 NONAME
	_ZThn8_N17QCameraViewfinderD0Ev @ 1577 NONAME
	_ZThn8_N17QCameraViewfinderD1Ev @ 1578 NONAME
	_ZThn8_N19QCameraImageCapture14setMediaObjectEP12QMediaObject @ 1579 NONAME
	_ZThn8_N19QCameraImageCaptureD0Ev @ 1580 NONAME
	_ZThn8_N19QCameraImageCaptureD1Ev @ 1581 NONAME
	_ZThn8_NK19QCameraImageCapture11mediaObjectEv @ 1582 NONAME
	_ZN17QMediaImageViewer14setVideoOutputEP12QVideoWidget @ 1583 NONAME
	_ZN17QMediaImageViewer14setVideoOutputEP18QGraphicsVideoItem @ 1584 NONAME
	_ZN21QAbstractVideoSurface19setNativeResolutionERK5QSize @ 1585 NONAME
	_ZN21QAbstractVideoSurface23nativeResolutionChangedERK5QSize @ 1586 NONAME
	_ZNK21QAbstractVideoSurface16nativeResolutionEv @ 1587 NONAME
	_ZN14QCameraControl13statusChangedEN7QCamera6StatusE @ 1588 NONAME
	_ZN15QCameraExposure27exposureCompensationChangedEf @ 1589 NONAME
	_ZN19QCameraFlashControl10flashReadyEb @ 1590 NONAME
	_ZN19QCameraFlashControl11qt_metacallEN11QMetaObject4CallEiPPv @ 1591 NONAME
	_ZN19QCameraFlashControl11qt_metacastEPKc @ 1592 NONAME
	_ZN19QCameraFlashControl16staticMetaObjectE @ 1593 NONAME DATA 16
	_ZN19QCameraFlashControl19getStaticMetaObjectEv @ 1594 NONAME
	_ZN19QCameraFlashControlC2EP7QObject @ 1595 NONAME
	_ZN19QCameraFlashControlD0Ev @ 1596 NONAME
	_ZN19QCameraFlashControlD1Ev @ 1597 NONAME
	_ZN19QCameraFlashControlD2Ev @ 1598 NONAME
	_ZN7QCamera13statusChangedENS_6StatusE @ 1599 NONAME
	_ZN7QCamera4loadEv @ 1600 NONAME
	_ZN7QCamera6unloadEv @ 1601 NONAME
	_ZNK19QCameraFlashControl10metaObjectEv @ 1602 NONAME
	_ZNK7QCamera6statusEv @ 1603 NONAME
	_ZTI19QCameraFlashControl @ 1604 NONAME
	_ZTV19QCameraFlashControl @ 1605 NONAME
	_ZN12QCameraFocus25maximumDigitalZoomChangedEf @ 1606 NONAME
	_ZN12QCameraFocus25maximumOpticalZoomChangedEf @ 1607 NONAME
	_ZN12QSoundEffect12setLoopCountEi @ 1608 NONAME
	_ZN12QSoundEffect13loadedChangedEv @ 1609 NONAME
	_ZN12QSoundEffect16loopCountChangedEv @ 1610 NONAME
	_ZN12QSoundEffect18supportedMimeTypesEv @ 1611 NONAME
	_ZN12QSoundEffect4stopEv @ 1612 NONAME
	_ZN19QCameraFocusControl25maximumDigitalZoomChangedEf @ 1613 NONAME
	_ZN19QCameraFocusControl25maximumOpticalZoomChangedEf @ 1614 NONAME
	_ZNK12QSoundEffect8isLoadedEv @ 1615 NONAME
	_ZNK12QSoundEffect9loopCountEv @ 1616 NONAME
	_ZN12QSoundEffect13statusChangedEv @ 1617 NONAME
	_ZN12QSoundEffect14playingChangedEv @ 1618 NONAME
	_ZNK12QSoundEffect6statusEv @ 1619 NONAME
	_ZNK12QSoundEffect9isPlayingEv @ 1620 NONAME
	_ZN12QMediaPlayer14setVideoOutputEP21QAbstractVideoSurface @ 1621 NONAME
	_ZN12QMediaPlayer24setNetworkConfigurationsERK5QListI21QNetworkConfigurationE @ 1622 NONAME
	_ZN12QMediaPlayer27networkConfigurationChangedERK21QNetworkConfiguration @ 1623 NONAME
	_ZN17QMediaImageViewer14setVideoOutputEP21QAbstractVideoSurface @ 1624 NONAME
	_ZN26QMediaNetworkAccessControl11qt_metacallEN11QMetaObject4CallEiPPv @ 1625 NONAME
	_ZN26QMediaNetworkAccessControl11qt_metacastEPKc @ 1626 NONAME
	_ZN26QMediaNetworkAccessControl16staticMetaObjectE @ 1627 NONAME DATA 16
	_ZN26QMediaNetworkAccessControl19getStaticMetaObjectEv @ 1628 NONAME
	_ZN26QMediaNetworkAccessControl20configurationChangedERK21QNetworkConfiguration @ 1629 NONAME
	_ZN26QMediaNetworkAccessControlC2EP7QObject @ 1630 NONAME
	_ZN26QMediaNetworkAccessControlD0Ev @ 1631 NONAME
	_ZN26QMediaNetworkAccessControlD1Ev @ 1632 NONAME
	_ZN26QMediaNetworkAccessControlD2Ev @ 1633 NONAME
	_ZN7QCamera13setViewfinderEP21QAbstractVideoSurface @ 1634 NONAME
	_ZNK12QMediaPlayer27currentNetworkConfigurationEv @ 1635 NONAME
	_ZNK26QMediaNetworkAccessControl10metaObjectEv @ 1636 NONAME
	_ZTI26QMediaNetworkAccessControl @ 1637 NONAME
	_ZTV26QMediaNetworkAccessControl @ 1638 NONAME

